Archive member included to satisfy reference by file (symbol)

d:/mounriver_studio/toolchain/risc-v embedded gcc/bin/../lib/gcc/riscv-none-embed/8.2.0/rv32imacxw/ilp32\libgcc.a(save-restore.o)
                              ./DAP/Source/DAP.o (__riscv_save_12)
d:/mounriver_studio/toolchain/risc-v embedded gcc/bin/../lib/gcc/riscv-none-embed/8.2.0/../../../../riscv-none-embed/lib/rv32imacxw/ilp32\libg_nano.a(lib_a-memcmp.o)
                              ./CherryDAP/dap_main.o (memcmp)
d:/mounriver_studio/toolchain/risc-v embedded gcc/bin/../lib/gcc/riscv-none-embed/8.2.0/../../../../riscv-none-embed/lib/rv32imacxw/ilp32\libg_nano.a(lib_a-memcpy.o)
                              ./CherryUSB/usbd_cdc.o (memcpy)
d:/mounriver_studio/toolchain/risc-v embedded gcc/bin/../lib/gcc/riscv-none-embed/8.2.0/../../../../riscv-none-embed/lib/rv32imacxw/ilp32\libg_nano.a(lib_a-memset.o)
                              ./CherryUSB/usb_dc_usbhs.o (memset)
d:/mounriver_studio/toolchain/risc-v embedded gcc/bin/../lib/gcc/riscv-none-embed/8.2.0/../../../../riscv-none-embed/lib/rv32imacxw/ilp32\libg_nano.a(lib_a-printf.o)
                              ./CherryUSB/usbd_cdc.o (printf)
d:/mounriver_studio/toolchain/risc-v embedded gcc/bin/../lib/gcc/riscv-none-embed/8.2.0/../../../../riscv-none-embed/lib/rv32imacxw/ilp32\libg_nano.a(lib_a-puts.o)
                              ./CherryUSB/usbd_core.o (puts)
d:/mounriver_studio/toolchain/risc-v embedded gcc/bin/../lib/gcc/riscv-none-embed/8.2.0/../../../../riscv-none-embed/lib/rv32imacxw/ilp32\libg_nano.a(lib_a-sprintf.o)
                              ./DAP/Source/DAP.o (sprintf)
d:/mounriver_studio/toolchain/risc-v embedded gcc/bin/../lib/gcc/riscv-none-embed/8.2.0/../../../../riscv-none-embed/lib/rv32imacxw/ilp32\libg_nano.a(lib_a-strlen.o)
                              ./DAP/Source/DAP.o (strlen)
d:/mounriver_studio/toolchain/risc-v embedded gcc/bin/../lib/gcc/riscv-none-embed/8.2.0/../../../../riscv-none-embed/lib/rv32imacxw/ilp32\libg_nano.a(lib_a-wbuf.o)
                              d:/mounriver_studio/toolchain/risc-v embedded gcc/bin/../lib/gcc/riscv-none-embed/8.2.0/../../../../riscv-none-embed/lib/rv32imacxw/ilp32\libg_nano.a(lib_a-puts.o) (__swbuf_r)
d:/mounriver_studio/toolchain/risc-v embedded gcc/bin/../lib/gcc/riscv-none-embed/8.2.0/../../../../riscv-none-embed/lib/rv32imacxw/ilp32\libg_nano.a(lib_a-wsetup.o)
                              d:/mounriver_studio/toolchain/risc-v embedded gcc/bin/../lib/gcc/riscv-none-embed/8.2.0/../../../../riscv-none-embed/lib/rv32imacxw/ilp32\libg_nano.a(lib_a-puts.o) (__swsetup_r)
d:/mounriver_studio/toolchain/risc-v embedded gcc/bin/../lib/gcc/riscv-none-embed/8.2.0/../../../../riscv-none-embed/lib/rv32imacxw/ilp32\libg_nano.a(lib_a-fflush.o)
                              d:/mounriver_studio/toolchain/risc-v embedded gcc/bin/../lib/gcc/riscv-none-embed/8.2.0/../../../../riscv-none-embed/lib/rv32imacxw/ilp32\libg_nano.a(lib_a-wbuf.o) (_fflush_r)
d:/mounriver_studio/toolchain/risc-v embedded gcc/bin/../lib/gcc/riscv-none-embed/8.2.0/../../../../riscv-none-embed/lib/rv32imacxw/ilp32\libg_nano.a(lib_a-findfp.o)
                              d:/mounriver_studio/toolchain/risc-v embedded gcc/bin/../lib/gcc/riscv-none-embed/8.2.0/../../../../riscv-none-embed/lib/rv32imacxw/ilp32\libg_nano.a(lib_a-printf.o) (__sinit)
d:/mounriver_studio/toolchain/risc-v embedded gcc/bin/../lib/gcc/riscv-none-embed/8.2.0/../../../../riscv-none-embed/lib/rv32imacxw/ilp32\libg_nano.a(lib_a-fwalk.o)
                              d:/mounriver_studio/toolchain/risc-v embedded gcc/bin/../lib/gcc/riscv-none-embed/8.2.0/../../../../riscv-none-embed/lib/rv32imacxw/ilp32\libg_nano.a(lib_a-findfp.o) (_fwalk)
d:/mounriver_studio/toolchain/risc-v embedded gcc/bin/../lib/gcc/riscv-none-embed/8.2.0/../../../../riscv-none-embed/lib/rv32imacxw/ilp32\libg_nano.a(lib_a-impure.o)
                              d:/mounriver_studio/toolchain/risc-v embedded gcc/bin/../lib/gcc/riscv-none-embed/8.2.0/../../../../riscv-none-embed/lib/rv32imacxw/ilp32\libg_nano.a(lib_a-fflush.o) (_global_impure_ptr)
d:/mounriver_studio/toolchain/risc-v embedded gcc/bin/../lib/gcc/riscv-none-embed/8.2.0/../../../../riscv-none-embed/lib/rv32imacxw/ilp32\libg_nano.a(lib_a-makebuf.o)
                              d:/mounriver_studio/toolchain/risc-v embedded gcc/bin/../lib/gcc/riscv-none-embed/8.2.0/../../../../riscv-none-embed/lib/rv32imacxw/ilp32\libg_nano.a(lib_a-wsetup.o) (__smakebuf_r)
d:/mounriver_studio/toolchain/risc-v embedded gcc/bin/../lib/gcc/riscv-none-embed/8.2.0/../../../../riscv-none-embed/lib/rv32imacxw/ilp32\libg_nano.a(lib_a-nano-freer.o)
                              d:/mounriver_studio/toolchain/risc-v embedded gcc/bin/../lib/gcc/riscv-none-embed/8.2.0/../../../../riscv-none-embed/lib/rv32imacxw/ilp32\libg_nano.a(lib_a-wsetup.o) (_free_r)
d:/mounriver_studio/toolchain/risc-v embedded gcc/bin/../lib/gcc/riscv-none-embed/8.2.0/../../../../riscv-none-embed/lib/rv32imacxw/ilp32\libg_nano.a(lib_a-nano-mallocr.o)
                              d:/mounriver_studio/toolchain/risc-v embedded gcc/bin/../lib/gcc/riscv-none-embed/8.2.0/../../../../riscv-none-embed/lib/rv32imacxw/ilp32\libg_nano.a(lib_a-findfp.o) (_malloc_r)
d:/mounriver_studio/toolchain/risc-v embedded gcc/bin/../lib/gcc/riscv-none-embed/8.2.0/../../../../riscv-none-embed/lib/rv32imacxw/ilp32\libg_nano.a(lib_a-nano-svfprintf.o)
                              d:/mounriver_studio/toolchain/risc-v embedded gcc/bin/../lib/gcc/riscv-none-embed/8.2.0/../../../../riscv-none-embed/lib/rv32imacxw/ilp32\libg_nano.a(lib_a-sprintf.o) (_svfprintf_r)
d:/mounriver_studio/toolchain/risc-v embedded gcc/bin/../lib/gcc/riscv-none-embed/8.2.0/../../../../riscv-none-embed/lib/rv32imacxw/ilp32\libg_nano.a(lib_a-nano-vfprintf.o)
                              d:/mounriver_studio/toolchain/risc-v embedded gcc/bin/../lib/gcc/riscv-none-embed/8.2.0/../../../../riscv-none-embed/lib/rv32imacxw/ilp32\libg_nano.a(lib_a-printf.o) (_vfprintf_r)
d:/mounriver_studio/toolchain/risc-v embedded gcc/bin/../lib/gcc/riscv-none-embed/8.2.0/../../../../riscv-none-embed/lib/rv32imacxw/ilp32\libg_nano.a(lib_a-nano-vfprintf_i.o)
                              d:/mounriver_studio/toolchain/risc-v embedded gcc/bin/../lib/gcc/riscv-none-embed/8.2.0/../../../../riscv-none-embed/lib/rv32imacxw/ilp32\libg_nano.a(lib_a-nano-svfprintf.o) (_printf_i)
d:/mounriver_studio/toolchain/risc-v embedded gcc/bin/../lib/gcc/riscv-none-embed/8.2.0/../../../../riscv-none-embed/lib/rv32imacxw/ilp32\libg_nano.a(lib_a-sbrkr.o)
                              d:/mounriver_studio/toolchain/risc-v embedded gcc/bin/../lib/gcc/riscv-none-embed/8.2.0/../../../../riscv-none-embed/lib/rv32imacxw/ilp32\libg_nano.a(lib_a-nano-mallocr.o) (_sbrk_r)
d:/mounriver_studio/toolchain/risc-v embedded gcc/bin/../lib/gcc/riscv-none-embed/8.2.0/../../../../riscv-none-embed/lib/rv32imacxw/ilp32\libg_nano.a(lib_a-stdio.o)
                              d:/mounriver_studio/toolchain/risc-v embedded gcc/bin/../lib/gcc/riscv-none-embed/8.2.0/../../../../riscv-none-embed/lib/rv32imacxw/ilp32\libg_nano.a(lib_a-findfp.o) (__sread)
d:/mounriver_studio/toolchain/risc-v embedded gcc/bin/../lib/gcc/riscv-none-embed/8.2.0/../../../../riscv-none-embed/lib/rv32imacxw/ilp32\libg_nano.a(lib_a-writer.o)
                              d:/mounriver_studio/toolchain/risc-v embedded gcc/bin/../lib/gcc/riscv-none-embed/8.2.0/../../../../riscv-none-embed/lib/rv32imacxw/ilp32\libg_nano.a(lib_a-stdio.o) (_write_r)
d:/mounriver_studio/toolchain/risc-v embedded gcc/bin/../lib/gcc/riscv-none-embed/8.2.0/../../../../riscv-none-embed/lib/rv32imacxw/ilp32\libg_nano.a(lib_a-closer.o)
                              d:/mounriver_studio/toolchain/risc-v embedded gcc/bin/../lib/gcc/riscv-none-embed/8.2.0/../../../../riscv-none-embed/lib/rv32imacxw/ilp32\libg_nano.a(lib_a-stdio.o) (_close_r)
d:/mounriver_studio/toolchain/risc-v embedded gcc/bin/../lib/gcc/riscv-none-embed/8.2.0/../../../../riscv-none-embed/lib/rv32imacxw/ilp32\libg_nano.a(lib_a-fstatr.o)
                              d:/mounriver_studio/toolchain/risc-v embedded gcc/bin/../lib/gcc/riscv-none-embed/8.2.0/../../../../riscv-none-embed/lib/rv32imacxw/ilp32\libg_nano.a(lib_a-makebuf.o) (_fstat_r)
d:/mounriver_studio/toolchain/risc-v embedded gcc/bin/../lib/gcc/riscv-none-embed/8.2.0/../../../../riscv-none-embed/lib/rv32imacxw/ilp32\libg_nano.a(lib_a-fvwrite.o)
                              d:/mounriver_studio/toolchain/risc-v embedded gcc/bin/../lib/gcc/riscv-none-embed/8.2.0/../../../../riscv-none-embed/lib/rv32imacxw/ilp32\libg_nano.a(lib_a-nano-vfprintf.o) (__sfvwrite_r)
d:/mounriver_studio/toolchain/risc-v embedded gcc/bin/../lib/gcc/riscv-none-embed/8.2.0/../../../../riscv-none-embed/lib/rv32imacxw/ilp32\libg_nano.a(lib_a-isattyr.o)
                              d:/mounriver_studio/toolchain/risc-v embedded gcc/bin/../lib/gcc/riscv-none-embed/8.2.0/../../../../riscv-none-embed/lib/rv32imacxw/ilp32\libg_nano.a(lib_a-makebuf.o) (_isatty_r)
d:/mounriver_studio/toolchain/risc-v embedded gcc/bin/../lib/gcc/riscv-none-embed/8.2.0/../../../../riscv-none-embed/lib/rv32imacxw/ilp32\libg_nano.a(lib_a-lseekr.o)
                              d:/mounriver_studio/toolchain/risc-v embedded gcc/bin/../lib/gcc/riscv-none-embed/8.2.0/../../../../riscv-none-embed/lib/rv32imacxw/ilp32\libg_nano.a(lib_a-stdio.o) (_lseek_r)
d:/mounriver_studio/toolchain/risc-v embedded gcc/bin/../lib/gcc/riscv-none-embed/8.2.0/../../../../riscv-none-embed/lib/rv32imacxw/ilp32\libg_nano.a(lib_a-memchr.o)
                              d:/mounriver_studio/toolchain/risc-v embedded gcc/bin/../lib/gcc/riscv-none-embed/8.2.0/../../../../riscv-none-embed/lib/rv32imacxw/ilp32\libg_nano.a(lib_a-nano-svfprintf.o) (memchr)
d:/mounriver_studio/toolchain/risc-v embedded gcc/bin/../lib/gcc/riscv-none-embed/8.2.0/../../../../riscv-none-embed/lib/rv32imacxw/ilp32\libg_nano.a(lib_a-memmove.o)
                              d:/mounriver_studio/toolchain/risc-v embedded gcc/bin/../lib/gcc/riscv-none-embed/8.2.0/../../../../riscv-none-embed/lib/rv32imacxw/ilp32\libg_nano.a(lib_a-nano-svfprintf.o) (memmove)
d:/mounriver_studio/toolchain/risc-v embedded gcc/bin/../lib/gcc/riscv-none-embed/8.2.0/../../../../riscv-none-embed/lib/rv32imacxw/ilp32\libg_nano.a(lib_a-mlock.o)
                              d:/mounriver_studio/toolchain/risc-v embedded gcc/bin/../lib/gcc/riscv-none-embed/8.2.0/../../../../riscv-none-embed/lib/rv32imacxw/ilp32\libg_nano.a(lib_a-nano-freer.o) (__malloc_lock)
d:/mounriver_studio/toolchain/risc-v embedded gcc/bin/../lib/gcc/riscv-none-embed/8.2.0/../../../../riscv-none-embed/lib/rv32imacxw/ilp32\libg_nano.a(lib_a-nano-reallocr.o)
                              d:/mounriver_studio/toolchain/risc-v embedded gcc/bin/../lib/gcc/riscv-none-embed/8.2.0/../../../../riscv-none-embed/lib/rv32imacxw/ilp32\libg_nano.a(lib_a-nano-svfprintf.o) (_realloc_r)
d:/mounriver_studio/toolchain/risc-v embedded gcc/bin/../lib/gcc/riscv-none-embed/8.2.0/../../../../riscv-none-embed/lib/rv32imacxw/ilp32\libg_nano.a(lib_a-readr.o)
                              d:/mounriver_studio/toolchain/risc-v embedded gcc/bin/../lib/gcc/riscv-none-embed/8.2.0/../../../../riscv-none-embed/lib/rv32imacxw/ilp32\libg_nano.a(lib_a-stdio.o) (_read_r)
d:/mounriver_studio/toolchain/risc-v embedded gcc/bin/../lib/gcc/riscv-none-embed/8.2.0/../../../../riscv-none-embed/lib/rv32imacxw/ilp32\libg_nano.a(lib_a-reent.o)
                              d:/mounriver_studio/toolchain/risc-v embedded gcc/bin/../lib/gcc/riscv-none-embed/8.2.0/../../../../riscv-none-embed/lib/rv32imacxw/ilp32\libg_nano.a(lib_a-sbrkr.o) (errno)
d:/mounriver_studio/toolchain/risc-v embedded gcc/bin/../lib/gcc/riscv-none-embed/8.2.0/../../../../riscv-none-embed/lib/rv32imacxw/ilp32\libg_nano.a(lib_a-nano-msizer.o)
                              d:/mounriver_studio/toolchain/risc-v embedded gcc/bin/../lib/gcc/riscv-none-embed/8.2.0/../../../../riscv-none-embed/lib/rv32imacxw/ilp32\libg_nano.a(lib_a-nano-reallocr.o) (_malloc_usable_size_r)
d:/mounriver_studio/toolchain/risc-v embedded gcc/bin/../lib/gcc/riscv-none-embed/8.2.0/../../../../riscv-none-embed/lib/rv32imacxw/ilp32\libnosys.a(close.o)
                              d:/mounriver_studio/toolchain/risc-v embedded gcc/bin/../lib/gcc/riscv-none-embed/8.2.0/../../../../riscv-none-embed/lib/rv32imacxw/ilp32\libg_nano.a(lib_a-closer.o) (_close)
d:/mounriver_studio/toolchain/risc-v embedded gcc/bin/../lib/gcc/riscv-none-embed/8.2.0/../../../../riscv-none-embed/lib/rv32imacxw/ilp32\libnosys.a(fstat.o)
                              d:/mounriver_studio/toolchain/risc-v embedded gcc/bin/../lib/gcc/riscv-none-embed/8.2.0/../../../../riscv-none-embed/lib/rv32imacxw/ilp32\libg_nano.a(lib_a-fstatr.o) (_fstat)
d:/mounriver_studio/toolchain/risc-v embedded gcc/bin/../lib/gcc/riscv-none-embed/8.2.0/../../../../riscv-none-embed/lib/rv32imacxw/ilp32\libnosys.a(isatty.o)
                              d:/mounriver_studio/toolchain/risc-v embedded gcc/bin/../lib/gcc/riscv-none-embed/8.2.0/../../../../riscv-none-embed/lib/rv32imacxw/ilp32\libg_nano.a(lib_a-isattyr.o) (_isatty)
d:/mounriver_studio/toolchain/risc-v embedded gcc/bin/../lib/gcc/riscv-none-embed/8.2.0/../../../../riscv-none-embed/lib/rv32imacxw/ilp32\libnosys.a(lseek.o)
                              d:/mounriver_studio/toolchain/risc-v embedded gcc/bin/../lib/gcc/riscv-none-embed/8.2.0/../../../../riscv-none-embed/lib/rv32imacxw/ilp32\libg_nano.a(lib_a-lseekr.o) (_lseek)
d:/mounriver_studio/toolchain/risc-v embedded gcc/bin/../lib/gcc/riscv-none-embed/8.2.0/../../../../riscv-none-embed/lib/rv32imacxw/ilp32\libnosys.a(read.o)
                              d:/mounriver_studio/toolchain/risc-v embedded gcc/bin/../lib/gcc/riscv-none-embed/8.2.0/../../../../riscv-none-embed/lib/rv32imacxw/ilp32\libg_nano.a(lib_a-readr.o) (_read)

Allocating common symbols
Common symbol       size              file

errno               0x4               d:/mounriver_studio/toolchain/risc-v embedded gcc/bin/../lib/gcc/riscv-none-embed/8.2.0/../../../../riscv-none-embed/lib/rv32imacxw/ilp32\libg_nano.a(lib_a-reent.o)

Discarded input sections

 .text          0x0000000000000000        0x0 ./User/ch32v30x_it.o
 .data          0x0000000000000000        0x0 ./User/ch32v30x_it.o
 .bss           0x0000000000000000        0x0 ./User/ch32v30x_it.o
 .text          0x0000000000000000        0x0 ./User/main.o
 .data          0x0000000000000000        0x0 ./User/main.o
 .bss           0x0000000000000000        0x0 ./User/main.o
 .text.enable_power_output
                0x0000000000000000       0x86 ./User/main.o
 .text.USBHS_RCC_Init
                0x0000000000000000       0x52 ./User/main.o
 .text          0x0000000000000000        0x0 ./User/system_ch32v30x.o
 .data          0x0000000000000000        0x0 ./User/system_ch32v30x.o
 .bss           0x0000000000000000        0x0 ./User/system_ch32v30x.o
 .text          0x0000000000000000        0x0 ./User/usb2uart.o
 .data          0x0000000000000000        0x0 ./User/usb2uart.o
 .bss           0x0000000000000000        0x0 ./User/usb2uart.o
 .text.DMA_INIT
                0x0000000000000000       0xa4 ./User/usb2uart.o
 .text.UART3_CfgInit
                0x0000000000000000       0x72 ./User/usb2uart.o
 .text          0x0000000000000000        0x0 ./Startup/startup_ch32v30x_D8C.o
 .data          0x0000000000000000        0x0 ./Startup/startup_ch32v30x_D8C.o
 .bss           0x0000000000000000        0x0 ./Startup/startup_ch32v30x_D8C.o
 .text          0x0000000000000000        0x0 ./Peripheral/src/ch32v30x_adc.o
 .data          0x0000000000000000        0x0 ./Peripheral/src/ch32v30x_adc.o
 .bss           0x0000000000000000        0x0 ./Peripheral/src/ch32v30x_adc.o
 .text.ADC_DeInit
                0x0000000000000000       0x70 ./Peripheral/src/ch32v30x_adc.o
 .text.ADC_Init
                0x0000000000000000       0x5a ./Peripheral/src/ch32v30x_adc.o
 .text.ADC_StructInit
                0x0000000000000000       0x1a ./Peripheral/src/ch32v30x_adc.o
 .text.ADC_Cmd  0x0000000000000000       0x12 ./Peripheral/src/ch32v30x_adc.o
 .text.ADC_DMACmd
                0x0000000000000000       0x14 ./Peripheral/src/ch32v30x_adc.o
 .text.ADC_ITConfig
                0x0000000000000000       0x18 ./Peripheral/src/ch32v30x_adc.o
 .text.ADC_ResetCalibration
                0x0000000000000000        0xa ./Peripheral/src/ch32v30x_adc.o
 .text.ADC_GetResetCalibrationStatus
                0x0000000000000000        0x8 ./Peripheral/src/ch32v30x_adc.o
 .text.ADC_StartCalibration
                0x0000000000000000        0xa ./Peripheral/src/ch32v30x_adc.o
 .text.ADC_GetCalibrationStatus
                0x0000000000000000        0x8 ./Peripheral/src/ch32v30x_adc.o
 .text.ADC_SoftwareStartConvCmd
                0x0000000000000000       0x1a ./Peripheral/src/ch32v30x_adc.o
 .text.ADC_GetSoftwareStartConvStatus
                0x0000000000000000        0x8 ./Peripheral/src/ch32v30x_adc.o
 .text.ADC_DiscModeChannelCountConfig
                0x0000000000000000       0x12 ./Peripheral/src/ch32v30x_adc.o
 .text.ADC_DiscModeCmd
                0x0000000000000000       0x1c ./Peripheral/src/ch32v30x_adc.o
 .text.ADC_RegularChannelConfig
                0x0000000000000000       0xbe ./Peripheral/src/ch32v30x_adc.o
 .text.ADC_ExternalTrigConvCmd
                0x0000000000000000       0x1a ./Peripheral/src/ch32v30x_adc.o
 .text.ADC_GetConversionValue
                0x0000000000000000        0x8 ./Peripheral/src/ch32v30x_adc.o
 .text.ADC_GetDualModeConversionValue
                0x0000000000000000        0xa ./Peripheral/src/ch32v30x_adc.o
 .text.ADC_AutoInjectedConvCmd
                0x0000000000000000       0x14 ./Peripheral/src/ch32v30x_adc.o
 .text.ADC_InjectedDiscModeCmd
                0x0000000000000000       0x16 ./Peripheral/src/ch32v30x_adc.o
 .text.ADC_ExternalTrigInjectedConvConfig
                0x0000000000000000        0xe ./Peripheral/src/ch32v30x_adc.o
 .text.ADC_ExternalTrigInjectedConvCmd
                0x0000000000000000       0x16 ./Peripheral/src/ch32v30x_adc.o
 .text.ADC_SoftwareStartInjectedConvCmd
                0x0000000000000000       0x1a ./Peripheral/src/ch32v30x_adc.o
 .text.ADC_GetSoftwareStartInjectedConvCmdStatus
                0x0000000000000000        0x8 ./Peripheral/src/ch32v30x_adc.o
 .text.ADC_InjectedChannelConfig
                0x0000000000000000       0x78 ./Peripheral/src/ch32v30x_adc.o
 .text.ADC_InjectedSequencerLengthConfig
                0x0000000000000000       0x14 ./Peripheral/src/ch32v30x_adc.o
 .text.ADC_SetInjectedOffset
                0x0000000000000000       0x14 ./Peripheral/src/ch32v30x_adc.o
 .text.ADC_GetInjectedConversionValue
                0x0000000000000000       0x1c ./Peripheral/src/ch32v30x_adc.o
 .text.ADC_AnalogWatchdogCmd
                0x0000000000000000       0x12 ./Peripheral/src/ch32v30x_adc.o
 .text.ADC_AnalogWatchdogThresholdsConfig
                0x0000000000000000        0x6 ./Peripheral/src/ch32v30x_adc.o
 .text.ADC_AnalogWatchdogSingleChannelConfig
                0x0000000000000000        0xa ./Peripheral/src/ch32v30x_adc.o
 .text.ADC_TempSensorVrefintCmd
                0x0000000000000000       0x24 ./Peripheral/src/ch32v30x_adc.o
 .text.ADC_GetFlagStatus
                0x0000000000000000        0xa ./Peripheral/src/ch32v30x_adc.o
 .text.ADC_ClearFlag
                0x0000000000000000        0x8 ./Peripheral/src/ch32v30x_adc.o
 .text.ADC_GetITStatus
                0x0000000000000000       0x1c ./Peripheral/src/ch32v30x_adc.o
 .text.ADC_ClearITPendingBit
                0x0000000000000000        0xa ./Peripheral/src/ch32v30x_adc.o
 .text.TempSensor_Volt_To_Temper
                0x0000000000000000       0x2a ./Peripheral/src/ch32v30x_adc.o
 .text.ADC_BufferCmd
                0x0000000000000000       0x1a ./Peripheral/src/ch32v30x_adc.o
 .text.Get_CalibrationValue
                0x0000000000000000      0x166 ./Peripheral/src/ch32v30x_adc.o
 .debug_info    0x0000000000000000     0x1778 ./Peripheral/src/ch32v30x_adc.o
 .debug_abbrev  0x0000000000000000      0x3e7 ./Peripheral/src/ch32v30x_adc.o
 .debug_loc     0x0000000000000000      0xb11 ./Peripheral/src/ch32v30x_adc.o
 .debug_aranges
                0x0000000000000000      0x150 ./Peripheral/src/ch32v30x_adc.o
 .debug_ranges  0x0000000000000000      0x140 ./Peripheral/src/ch32v30x_adc.o
 .debug_line    0x0000000000000000     0x1965 ./Peripheral/src/ch32v30x_adc.o
 .debug_str     0x0000000000000000      0xc12 ./Peripheral/src/ch32v30x_adc.o
 .comment       0x0000000000000000       0x34 ./Peripheral/src/ch32v30x_adc.o
 .debug_frame   0x0000000000000000      0x2b4 ./Peripheral/src/ch32v30x_adc.o
 .text          0x0000000000000000        0x0 ./Peripheral/src/ch32v30x_bkp.o
 .data          0x0000000000000000        0x0 ./Peripheral/src/ch32v30x_bkp.o
 .bss           0x0000000000000000        0x0 ./Peripheral/src/ch32v30x_bkp.o
 .text.BKP_DeInit
                0x0000000000000000       0x24 ./Peripheral/src/ch32v30x_bkp.o
 .text.BKP_TamperPinLevelConfig
                0x0000000000000000       0x2c ./Peripheral/src/ch32v30x_bkp.o
 .text.BKP_TamperPinCmd
                0x0000000000000000       0x2c ./Peripheral/src/ch32v30x_bkp.o
 .text.BKP_ITConfig
                0x0000000000000000       0x2c ./Peripheral/src/ch32v30x_bkp.o
 .text.BKP_RTCOutputConfig
                0x0000000000000000       0x18 ./Peripheral/src/ch32v30x_bkp.o
 .text.BKP_SetRTCCalibrationValue
                0x0000000000000000       0x18 ./Peripheral/src/ch32v30x_bkp.o
 .text.BKP_WriteBackupRegister
                0x0000000000000000       0x1c ./Peripheral/src/ch32v30x_bkp.o
 .text.BKP_ReadBackupRegister
                0x0000000000000000       0x1c ./Peripheral/src/ch32v30x_bkp.o
 .text.BKP_GetFlagStatus
                0x0000000000000000        0xe ./Peripheral/src/ch32v30x_bkp.o
 .text.BKP_ClearFlag
                0x0000000000000000       0x12 ./Peripheral/src/ch32v30x_bkp.o
 .text.BKP_GetITStatus
                0x0000000000000000        0xe ./Peripheral/src/ch32v30x_bkp.o
 .text.BKP_ClearITPendingBit
                0x0000000000000000       0x12 ./Peripheral/src/ch32v30x_bkp.o
 .debug_info    0x0000000000000000     0x10c9 ./Peripheral/src/ch32v30x_bkp.o
 .debug_abbrev  0x0000000000000000      0x2cc ./Peripheral/src/ch32v30x_bkp.o
 .debug_loc     0x0000000000000000       0xd8 ./Peripheral/src/ch32v30x_bkp.o
 .debug_aranges
                0x0000000000000000       0x78 ./Peripheral/src/ch32v30x_bkp.o
 .debug_ranges  0x0000000000000000       0x68 ./Peripheral/src/ch32v30x_bkp.o
 .debug_line    0x0000000000000000      0x61d ./Peripheral/src/ch32v30x_bkp.o
 .debug_str     0x0000000000000000      0xaa0 ./Peripheral/src/ch32v30x_bkp.o
 .comment       0x0000000000000000       0x34 ./Peripheral/src/ch32v30x_bkp.o
 .debug_frame   0x0000000000000000       0xec ./Peripheral/src/ch32v30x_bkp.o
 .text          0x0000000000000000        0x0 ./Peripheral/src/ch32v30x_can.o
 .data          0x0000000000000000        0x0 ./Peripheral/src/ch32v30x_can.o
 .bss           0x0000000000000000        0x0 ./Peripheral/src/ch32v30x_can.o
 .text.CAN_DeInit
                0x0000000000000000       0x5a ./Peripheral/src/ch32v30x_can.o
 .text.CAN_Init
                0x0000000000000000      0x12a ./Peripheral/src/ch32v30x_can.o
 .text.CAN_FilterInit
                0x0000000000000000       0xee ./Peripheral/src/ch32v30x_can.o
 .text.CAN_StructInit
                0x0000000000000000       0x24 ./Peripheral/src/ch32v30x_can.o
 .text.CAN_SlaveStartBank
                0x0000000000000000       0x38 ./Peripheral/src/ch32v30x_can.o
 .text.CAN_DBGFreeze
                0x0000000000000000       0x16 ./Peripheral/src/ch32v30x_can.o
 .text.CAN_TTComModeCmd
                0x0000000000000000       0x5c ./Peripheral/src/ch32v30x_can.o
 .text.CAN_Transmit
                0x0000000000000000       0xd4 ./Peripheral/src/ch32v30x_can.o
 .text.CAN_TransmitStatus
                0x0000000000000000       0x68 ./Peripheral/src/ch32v30x_can.o
 .text.CAN_CancelTransmit
                0x0000000000000000       0x30 ./Peripheral/src/ch32v30x_can.o
 .text.CAN_Receive
                0x0000000000000000       0x8c ./Peripheral/src/ch32v30x_can.o
 .text.CAN_FIFORelease
                0x0000000000000000       0x16 ./Peripheral/src/ch32v30x_can.o
 .text.CAN_MessagePending
                0x0000000000000000       0x1a ./Peripheral/src/ch32v30x_can.o
 .text.CAN_OperatingModeRequest
                0x0000000000000000       0xa0 ./Peripheral/src/ch32v30x_can.o
 .text.CAN_Sleep
                0x0000000000000000       0x16 ./Peripheral/src/ch32v30x_can.o
 .text.CAN_WakeUp
                0x0000000000000000       0x28 ./Peripheral/src/ch32v30x_can.o
 .text.CAN_GetLastErrorCode
                0x0000000000000000        0x8 ./Peripheral/src/ch32v30x_can.o
 .text.CAN_GetReceiveErrorCounter
                0x0000000000000000        0x6 ./Peripheral/src/ch32v30x_can.o
 .text.CAN_GetLSBTransmitErrorCounter
                0x0000000000000000        0xa ./Peripheral/src/ch32v30x_can.o
 .text.CAN_ITConfig
                0x0000000000000000       0x14 ./Peripheral/src/ch32v30x_can.o
 .text.CAN_GetFlagStatus
                0x0000000000000000       0x66 ./Peripheral/src/ch32v30x_can.o
 .text.CAN_ClearFlag
                0x0000000000000000       0x40 ./Peripheral/src/ch32v30x_can.o
 .text.CAN_GetITStatus
                0x0000000000000000       0xfa ./Peripheral/src/ch32v30x_can.o
 .text.CAN_ClearITPendingBit
                0x0000000000000000       0x9e ./Peripheral/src/ch32v30x_can.o
 .debug_info    0x0000000000000000     0x186a ./Peripheral/src/ch32v30x_can.o
 .debug_abbrev  0x0000000000000000      0x3b8 ./Peripheral/src/ch32v30x_can.o
 .debug_loc     0x0000000000000000      0xa4f ./Peripheral/src/ch32v30x_can.o
 .debug_aranges
                0x0000000000000000       0xd8 ./Peripheral/src/ch32v30x_can.o
 .debug_ranges  0x0000000000000000       0xc8 ./Peripheral/src/ch32v30x_can.o
 .debug_line    0x0000000000000000     0x1bfd ./Peripheral/src/ch32v30x_can.o
 .debug_str     0x0000000000000000      0xbb6 ./Peripheral/src/ch32v30x_can.o
 .comment       0x0000000000000000       0x34 ./Peripheral/src/ch32v30x_can.o
 .debug_frame   0x0000000000000000      0x1a0 ./Peripheral/src/ch32v30x_can.o
 .text          0x0000000000000000        0x0 ./Peripheral/src/ch32v30x_crc.o
 .data          0x0000000000000000        0x0 ./Peripheral/src/ch32v30x_crc.o
 .bss           0x0000000000000000        0x0 ./Peripheral/src/ch32v30x_crc.o
 .text.CRC_ResetDR
                0x0000000000000000        0xa ./Peripheral/src/ch32v30x_crc.o
 .text.CRC_CalcCRC
                0x0000000000000000        0xa ./Peripheral/src/ch32v30x_crc.o
 .text.CRC_CalcBlockCRC
                0x0000000000000000       0x1c ./Peripheral/src/ch32v30x_crc.o
 .text.CRC_GetCRC
                0x0000000000000000        0x8 ./Peripheral/src/ch32v30x_crc.o
 .text.CRC_SetIDRegister
                0x0000000000000000        0x8 ./Peripheral/src/ch32v30x_crc.o
 .text.CRC_GetIDRegister
                0x0000000000000000        0x8 ./Peripheral/src/ch32v30x_crc.o
 .debug_info    0x0000000000000000      0xab5 ./Peripheral/src/ch32v30x_crc.o
 .debug_abbrev  0x0000000000000000      0x25f ./Peripheral/src/ch32v30x_crc.o
 .debug_loc     0x0000000000000000       0x75 ./Peripheral/src/ch32v30x_crc.o
 .debug_aranges
                0x0000000000000000       0x48 ./Peripheral/src/ch32v30x_crc.o
 .debug_ranges  0x0000000000000000       0x38 ./Peripheral/src/ch32v30x_crc.o
 .debug_line    0x0000000000000000      0x386 ./Peripheral/src/ch32v30x_crc.o
 .debug_str     0x0000000000000000      0x676 ./Peripheral/src/ch32v30x_crc.o
 .comment       0x0000000000000000       0x34 ./Peripheral/src/ch32v30x_crc.o
 .debug_frame   0x0000000000000000       0x70 ./Peripheral/src/ch32v30x_crc.o
 .text          0x0000000000000000        0x0 ./Peripheral/src/ch32v30x_dac.o
 .data          0x0000000000000000        0x0 ./Peripheral/src/ch32v30x_dac.o
 .bss           0x0000000000000000        0x0 ./Peripheral/src/ch32v30x_dac.o
 .text.DAC_DeInit
                0x0000000000000000       0x2c ./Peripheral/src/ch32v30x_dac.o
 .text.DAC_Init
                0x0000000000000000       0x34 ./Peripheral/src/ch32v30x_dac.o
 .text.DAC_StructInit
                0x0000000000000000       0x12 ./Peripheral/src/ch32v30x_dac.o
 .text.DAC_Cmd  0x0000000000000000       0x24 ./Peripheral/src/ch32v30x_dac.o
 .text.DAC_DMACmd
                0x0000000000000000       0x24 ./Peripheral/src/ch32v30x_dac.o
 .text.DAC_SoftwareTriggerCmd
                0x0000000000000000       0x26 ./Peripheral/src/ch32v30x_dac.o
 .text.DAC_DualSoftwareTriggerCmd
                0x0000000000000000       0x1c ./Peripheral/src/ch32v30x_dac.o
 .text.DAC_WaveGenerationCmd
                0x0000000000000000       0x22 ./Peripheral/src/ch32v30x_dac.o
 .text.DAC_SetChannel1Data
                0x0000000000000000       0x1e ./Peripheral/src/ch32v30x_dac.o
 .text.DAC_SetChannel2Data
                0x0000000000000000       0x1e ./Peripheral/src/ch32v30x_dac.o
 .text.DAC_SetDualChannelData
                0x0000000000000000       0x20 ./Peripheral/src/ch32v30x_dac.o
 .text.DAC_GetDataOutputValue
                0x0000000000000000       0x26 ./Peripheral/src/ch32v30x_dac.o
 .debug_info    0x0000000000000000      0xdbb ./Peripheral/src/ch32v30x_dac.o
 .debug_abbrev  0x0000000000000000      0x2fe ./Peripheral/src/ch32v30x_dac.o
 .debug_loc     0x0000000000000000      0x1e8 ./Peripheral/src/ch32v30x_dac.o
 .debug_aranges
                0x0000000000000000       0x78 ./Peripheral/src/ch32v30x_dac.o
 .debug_ranges  0x0000000000000000       0x68 ./Peripheral/src/ch32v30x_dac.o
 .debug_line    0x0000000000000000      0x7bf ./Peripheral/src/ch32v30x_dac.o
 .debug_str     0x0000000000000000      0x7fa ./Peripheral/src/ch32v30x_dac.o
 .comment       0x0000000000000000       0x34 ./Peripheral/src/ch32v30x_dac.o
 .debug_frame   0x0000000000000000       0xf4 ./Peripheral/src/ch32v30x_dac.o
 .text          0x0000000000000000        0x0 ./Peripheral/src/ch32v30x_dbgmcu.o
 .data          0x0000000000000000        0x0 ./Peripheral/src/ch32v30x_dbgmcu.o
 .bss           0x0000000000000000        0x0 ./Peripheral/src/ch32v30x_dbgmcu.o
 .text.DBGMCU_GetREVID
                0x0000000000000000        0xa ./Peripheral/src/ch32v30x_dbgmcu.o
 .text.DBGMCU_GetDEVID
                0x0000000000000000        0xa ./Peripheral/src/ch32v30x_dbgmcu.o
 .text.__get_DEBUG_CR
                0x0000000000000000        0x6 ./Peripheral/src/ch32v30x_dbgmcu.o
 .text.__set_DEBUG_CR
                0x0000000000000000        0x6 ./Peripheral/src/ch32v30x_dbgmcu.o
 .text.DBGMCU_Config
                0x0000000000000000       0x12 ./Peripheral/src/ch32v30x_dbgmcu.o
 .text.DBGMCU_GetCHIPID
                0x0000000000000000        0xa ./Peripheral/src/ch32v30x_dbgmcu.o
 .debug_info    0x0000000000000000      0xa94 ./Peripheral/src/ch32v30x_dbgmcu.o
 .debug_abbrev  0x0000000000000000      0x2f7 ./Peripheral/src/ch32v30x_dbgmcu.o
 .debug_loc     0x0000000000000000       0x58 ./Peripheral/src/ch32v30x_dbgmcu.o
 .debug_aranges
                0x0000000000000000       0x48 ./Peripheral/src/ch32v30x_dbgmcu.o
 .debug_ranges  0x0000000000000000       0x50 ./Peripheral/src/ch32v30x_dbgmcu.o
 .debug_line    0x0000000000000000      0x375 ./Peripheral/src/ch32v30x_dbgmcu.o
 .debug_str     0x0000000000000000      0x641 ./Peripheral/src/ch32v30x_dbgmcu.o
 .comment       0x0000000000000000       0x34 ./Peripheral/src/ch32v30x_dbgmcu.o
 .debug_frame   0x0000000000000000       0x70 ./Peripheral/src/ch32v30x_dbgmcu.o
 .text          0x0000000000000000        0x0 ./Peripheral/src/ch32v30x_dma.o
 .data          0x0000000000000000        0x0 ./Peripheral/src/ch32v30x_dma.o
 .bss           0x0000000000000000        0x0 ./Peripheral/src/ch32v30x_dma.o
 .text.DMA_StructInit
                0x0000000000000000       0x2e ./Peripheral/src/ch32v30x_dma.o
 .text.DMA_ITConfig
                0x0000000000000000       0x14 ./Peripheral/src/ch32v30x_dma.o
 .text.DMA_GetFlagStatus
                0x0000000000000000       0x3e ./Peripheral/src/ch32v30x_dma.o
 .text.DMA_ClearFlag
                0x0000000000000000       0x2c ./Peripheral/src/ch32v30x_dma.o
 .text.DMA_GetITStatus
                0x0000000000000000       0x3e ./Peripheral/src/ch32v30x_dma.o
 .text.DMA_ClearITPendingBit
                0x0000000000000000       0x2c ./Peripheral/src/ch32v30x_dma.o
 .text          0x0000000000000000        0x0 ./Peripheral/src/ch32v30x_dvp.o
 .data          0x0000000000000000        0x0 ./Peripheral/src/ch32v30x_dvp.o
 .bss           0x0000000000000000        0x0 ./Peripheral/src/ch32v30x_dvp.o
 .text.DVP_INTCfg
                0x0000000000000000       0x18 ./Peripheral/src/ch32v30x_dvp.o
 .text.DVP_Mode
                0x0000000000000000       0x3a ./Peripheral/src/ch32v30x_dvp.o
 .text.DVP_Cfg  0x0000000000000000       0x6c ./Peripheral/src/ch32v30x_dvp.o
 .debug_info    0x0000000000000000      0xbc5 ./Peripheral/src/ch32v30x_dvp.o
 .debug_abbrev  0x0000000000000000      0x241 ./Peripheral/src/ch32v30x_dvp.o
 .debug_loc     0x0000000000000000       0x74 ./Peripheral/src/ch32v30x_dvp.o
 .debug_aranges
                0x0000000000000000       0x30 ./Peripheral/src/ch32v30x_dvp.o
 .debug_ranges  0x0000000000000000       0x20 ./Peripheral/src/ch32v30x_dvp.o
 .debug_line    0x0000000000000000      0x42e ./Peripheral/src/ch32v30x_dvp.o
 .debug_str     0x0000000000000000      0x737 ./Peripheral/src/ch32v30x_dvp.o
 .comment       0x0000000000000000       0x34 ./Peripheral/src/ch32v30x_dvp.o
 .debug_frame   0x0000000000000000       0x40 ./Peripheral/src/ch32v30x_dvp.o
 .text          0x0000000000000000        0x0 ./Peripheral/src/ch32v30x_eth.o
 .data          0x0000000000000000        0x0 ./Peripheral/src/ch32v30x_eth.o
 .bss           0x0000000000000000        0x0 ./Peripheral/src/ch32v30x_eth.o
 .text.ETH_DeInit
                0x0000000000000000       0x28 ./Peripheral/src/ch32v30x_eth.o
 .text.ETH_StructInit
                0x0000000000000000       0xd8 ./Peripheral/src/ch32v30x_eth.o
 .text.ETH_Start
                0x0000000000000000       0x34 ./Peripheral/src/ch32v30x_eth.o
 .text.ETH_HandleTxPkt
                0x0000000000000000       0xa0 ./Peripheral/src/ch32v30x_eth.o
 .text.ETH_HandleRxPkt
                0x0000000000000000       0xb4 ./Peripheral/src/ch32v30x_eth.o
 .text.ETH_GetRxPktSize
                0x0000000000000000       0x32 ./Peripheral/src/ch32v30x_eth.o
 .text.ETH_DropRxPkt
                0x0000000000000000       0x3e ./Peripheral/src/ch32v30x_eth.o
 .text.ETH_ReadPHYRegister
                0x0000000000000000       0x5e ./Peripheral/src/ch32v30x_eth.o
 .text.ETH_WritePHYRegister
                0x0000000000000000       0x54 ./Peripheral/src/ch32v30x_eth.o
 .text.ETH_PHYLoopBackCmd
                0x0000000000000000       0xa0 ./Peripheral/src/ch32v30x_eth.o
 .text.ETH_MACTransmissionCmd
                0x0000000000000000       0x16 ./Peripheral/src/ch32v30x_eth.o
 .text.ETH_MACReceptionCmd
                0x0000000000000000       0x16 ./Peripheral/src/ch32v30x_eth.o
 .text.ETH_GetFlowControlBusyStatus
                0x0000000000000000        0xa ./Peripheral/src/ch32v30x_eth.o
 .text.ETH_InitiatePauseControlFrame
                0x0000000000000000        0xe ./Peripheral/src/ch32v30x_eth.o
 .text.ETH_BackPressureActivationCmd
                0x0000000000000000       0x16 ./Peripheral/src/ch32v30x_eth.o
 .text.ETH_GetMACFlagStatus
                0x0000000000000000        0xe ./Peripheral/src/ch32v30x_eth.o
 .text.ETH_GetMACITStatus
                0x0000000000000000        0xe ./Peripheral/src/ch32v30x_eth.o
 .text.ETH_MACITConfig
                0x0000000000000000       0x1e ./Peripheral/src/ch32v30x_eth.o
 .text.ETH_MACAddressConfig
                0x0000000000000000       0x36 ./Peripheral/src/ch32v30x_eth.o
 .text.ETH_GetMACAddress
                0x0000000000000000       0x32 ./Peripheral/src/ch32v30x_eth.o
 .text.ETH_MACAddressPerfectFilterCmd
                0x0000000000000000       0x20 ./Peripheral/src/ch32v30x_eth.o
 .text.ETH_MACAddressFilterConfig
                0x0000000000000000       0x28 ./Peripheral/src/ch32v30x_eth.o
 .text.ETH_MACAddressMaskBytesFilterConfig
                0x0000000000000000       0x1e ./Peripheral/src/ch32v30x_eth.o
 .text.ETH_DMATxDescChainInit
                0x0000000000000000       0x6e ./Peripheral/src/ch32v30x_eth.o
 .text.ETH_DMATxDescRingInit
                0x0000000000000000       0x3a ./Peripheral/src/ch32v30x_eth.o
 .text.ETH_GetDMATxDescFlagStatus
                0x0000000000000000        0xa ./Peripheral/src/ch32v30x_eth.o
 .text.ETH_GetDMATxDescCollisionCount
                0x0000000000000000        0x8 ./Peripheral/src/ch32v30x_eth.o
 .text.ETH_SetDMATxDescOwnBit
                0x0000000000000000        0xc ./Peripheral/src/ch32v30x_eth.o
 .text.ETH_DMATxDescTransmitITConfig
                0x0000000000000000       0x1a ./Peripheral/src/ch32v30x_eth.o
 .text.ETH_DMATxDescFrameSegmentConfig
                0x0000000000000000        0x8 ./Peripheral/src/ch32v30x_eth.o
 .text.ETH_DMATxDescChecksumInsertionConfig
                0x0000000000000000        0x8 ./Peripheral/src/ch32v30x_eth.o
 .text.ETH_DMATxDescCRCCmd
                0x0000000000000000       0x1a ./Peripheral/src/ch32v30x_eth.o
 .text.ETH_DMATxDescEndOfRingCmd
                0x0000000000000000       0x1a ./Peripheral/src/ch32v30x_eth.o
 .text.ETH_DMATxDescSecondAddressChainedCmd
                0x0000000000000000       0x1a ./Peripheral/src/ch32v30x_eth.o
 .text.ETH_DMATxDescShortFramePaddingCmd
                0x0000000000000000       0x1a ./Peripheral/src/ch32v30x_eth.o
 .text.ETH_DMATxDescTimeStampCmd
                0x0000000000000000       0x1a ./Peripheral/src/ch32v30x_eth.o
 .text.ETH_DMATxDescBufferSizeConfig
                0x0000000000000000        0xc ./Peripheral/src/ch32v30x_eth.o
 .text.ETH_DMARxDescChainInit
                0x0000000000000000       0x82 ./Peripheral/src/ch32v30x_eth.o
 .text.ETH_DMARxDescRingInit
                0x0000000000000000       0x4c ./Peripheral/src/ch32v30x_eth.o
 .text.ETH_GetDMARxDescFlagStatus
                0x0000000000000000        0xa ./Peripheral/src/ch32v30x_eth.o
 .text.ETH_SetDMARxDescOwnBit
                0x0000000000000000        0xc ./Peripheral/src/ch32v30x_eth.o
 .text.ETH_GetDMARxDescFrameLength
                0x0000000000000000        0x8 ./Peripheral/src/ch32v30x_eth.o
 .text.ETH_DMARxDescReceiveITConfig
                0x0000000000000000       0x16 ./Peripheral/src/ch32v30x_eth.o
 .text.ETH_DMARxDescEndOfRingCmd
                0x0000000000000000       0x16 ./Peripheral/src/ch32v30x_eth.o
 .text.ETH_DMARxDescSecondAddressChainedCmd
                0x0000000000000000       0x16 ./Peripheral/src/ch32v30x_eth.o
 .text.ETH_GetDMARxDescBufferSize
                0x0000000000000000       0x10 ./Peripheral/src/ch32v30x_eth.o
 .text.ETH_SoftwareReset
                0x0000000000000000        0xe ./Peripheral/src/ch32v30x_eth.o
 .text.ETH_GetSoftwareResetStatus
                0x0000000000000000        0xa ./Peripheral/src/ch32v30x_eth.o
 .text.ETH_GetlinkStaus
                0x0000000000000000        0xa ./Peripheral/src/ch32v30x_eth.o
 .text.ETH_GetDMAFlagStatus
                0x0000000000000000        0xe ./Peripheral/src/ch32v30x_eth.o
 .text.ETH_DMAClearFlag
                0x0000000000000000        0x8 ./Peripheral/src/ch32v30x_eth.o
 .text.ETH_GetDMAITStatus
                0x0000000000000000        0xe ./Peripheral/src/ch32v30x_eth.o
 .text.ETH_DMAClearITPendingBit
                0x0000000000000000        0x8 ./Peripheral/src/ch32v30x_eth.o
 .text.ETH_GetTransmitProcessState
                0x0000000000000000        0xa ./Peripheral/src/ch32v30x_eth.o
 .text.ETH_GetReceiveProcessState
                0x0000000000000000        0xc ./Peripheral/src/ch32v30x_eth.o
 .text.ETH_FlushTransmitFIFO
                0x0000000000000000       0x10 ./Peripheral/src/ch32v30x_eth.o
 .text.ETH_GetFlushTransmitFIFOStatus
                0x0000000000000000        0xc ./Peripheral/src/ch32v30x_eth.o
 .text.ETH_DMATransmissionCmd
                0x0000000000000000       0x20 ./Peripheral/src/ch32v30x_eth.o
 .text.ETH_DMAReceptionCmd
                0x0000000000000000       0x16 ./Peripheral/src/ch32v30x_eth.o
 .text.ETH_DMAITConfig
                0x0000000000000000       0x1e ./Peripheral/src/ch32v30x_eth.o
 .text.ETH_GetDMAOverflowStatus
                0x0000000000000000        0xe ./Peripheral/src/ch32v30x_eth.o
 .text.ETH_GetRxOverflowMissedFrameCounter
                0x0000000000000000        0xe ./Peripheral/src/ch32v30x_eth.o
 .text.ETH_GetBufferUnavailableMissedFrameCounter
                0x0000000000000000        0xc ./Peripheral/src/ch32v30x_eth.o
 .text.ETH_GetCurrentTxDescStartAddress
                0x0000000000000000        0x8 ./Peripheral/src/ch32v30x_eth.o
 .text.ETH_GetCurrentRxDescStartAddress
                0x0000000000000000        0x8 ./Peripheral/src/ch32v30x_eth.o
 .text.ETH_GetCurrentTxBufferAddress
                0x0000000000000000        0xc ./Peripheral/src/ch32v30x_eth.o
 .text.ETH_GetCurrentRxBufferAddress
                0x0000000000000000        0x8 ./Peripheral/src/ch32v30x_eth.o
 .text.ETH_ResumeDMATransmission
                0x0000000000000000        0xa ./Peripheral/src/ch32v30x_eth.o
 .text.ETH_ResumeDMAReception
                0x0000000000000000        0xa ./Peripheral/src/ch32v30x_eth.o
 .text.ETH_ResetWakeUpFrameFilterRegisterPointer
                0x0000000000000000       0x10 ./Peripheral/src/ch32v30x_eth.o
 .text.ETH_SetWakeUpFrameFilterRegister
                0x0000000000000000       0x26 ./Peripheral/src/ch32v30x_eth.o
 .text.ETH_GlobalUnicastWakeUpCmd
                0x0000000000000000       0x18 ./Peripheral/src/ch32v30x_eth.o
 .text.ETH_GetPMTFlagStatus
                0x0000000000000000        0xe ./Peripheral/src/ch32v30x_eth.o
 .text.ETH_WakeUpFrameDetectionCmd
                0x0000000000000000       0x16 ./Peripheral/src/ch32v30x_eth.o
 .text.ETH_MagicPacketDetectionCmd
                0x0000000000000000       0x16 ./Peripheral/src/ch32v30x_eth.o
 .text.ETH_PowerDownCmd
                0x0000000000000000       0x16 ./Peripheral/src/ch32v30x_eth.o
 .text.ETH_MMCCounterFreezeCmd
                0x0000000000000000       0x1c ./Peripheral/src/ch32v30x_eth.o
 .text.ETH_MMCResetOnReadCmd
                0x0000000000000000       0x1c ./Peripheral/src/ch32v30x_eth.o
 .text.ETH_MMCCounterRolloverCmd
                0x0000000000000000       0x1c ./Peripheral/src/ch32v30x_eth.o
 .text.ETH_MMCCountersReset
                0x0000000000000000       0x12 ./Peripheral/src/ch32v30x_eth.o
 .text.ETH_MMCITConfig
                0x0000000000000000       0x5c ./Peripheral/src/ch32v30x_eth.o
 .text.ETH_GetMMCITStatus
                0x0000000000000000       0x3e ./Peripheral/src/ch32v30x_eth.o
 .text.ETH_GetMMCRegister
                0x0000000000000000        0xa ./Peripheral/src/ch32v30x_eth.o
 .text.ETH_EnablePTPTimeStampAddend
                0x0000000000000000       0x12 ./Peripheral/src/ch32v30x_eth.o
 .text.ETH_EnablePTPTimeStampInterruptTrigger
                0x0000000000000000       0x12 ./Peripheral/src/ch32v30x_eth.o
 .text.ETH_EnablePTPTimeStampUpdate
                0x0000000000000000       0x12 ./Peripheral/src/ch32v30x_eth.o
 .text.ETH_InitializePTPTimeStamp
                0x0000000000000000       0x12 ./Peripheral/src/ch32v30x_eth.o
 .text.ETH_PTPUpdateMethodConfig
                0x0000000000000000       0x1c ./Peripheral/src/ch32v30x_eth.o
 .text.ETH_PTPTimeStampCmd
                0x0000000000000000       0x1c ./Peripheral/src/ch32v30x_eth.o
 .text.ETH_GetPTPFlagStatus
                0x0000000000000000       0x10 ./Peripheral/src/ch32v30x_eth.o
 .text.ETH_SetPTPSubSecondIncrement
                0x0000000000000000        0xa ./Peripheral/src/ch32v30x_eth.o
 .text.ETH_SetPTPTimeStampUpdate
                0x0000000000000000       0x10 ./Peripheral/src/ch32v30x_eth.o
 .text.ETH_SetPTPTimeStampAddend
                0x0000000000000000        0xa ./Peripheral/src/ch32v30x_eth.o
 .text.ETH_SetPTPTargetTime
                0x0000000000000000        0xe ./Peripheral/src/ch32v30x_eth.o
 .text.ETH_GetPTPRegister
                0x0000000000000000        0xa ./Peripheral/src/ch32v30x_eth.o
 .text.ETH_DMAPTPTxDescChainInit
                0x0000000000000000       0xac ./Peripheral/src/ch32v30x_eth.o
 .text.ETH_DMAPTPRxDescChainInit
                0x0000000000000000       0xc0 ./Peripheral/src/ch32v30x_eth.o
 .text.ETH_HandlePTPTxPkt
                0x0000000000000000      0x106 ./Peripheral/src/ch32v30x_eth.o
 .text.ETH_HandlePTPRxPkt
                0x0000000000000000       0xdc ./Peripheral/src/ch32v30x_eth.o
 .text.RGMII_TXC_Delay
                0x0000000000000000       0x28 ./Peripheral/src/ch32v30x_eth.o
 .sbss.DMAPTPRxDescToGet
                0x0000000000000000        0x4 ./Peripheral/src/ch32v30x_eth.o
 .sbss.DMAPTPTxDescToSet
                0x0000000000000000        0x4 ./Peripheral/src/ch32v30x_eth.o
 .sbss.DMARxDescToGet
                0x0000000000000000        0x4 ./Peripheral/src/ch32v30x_eth.o
 .sbss.DMATxDescToSet
                0x0000000000000000        0x4 ./Peripheral/src/ch32v30x_eth.o
 .debug_info    0x0000000000000000     0x27cd ./Peripheral/src/ch32v30x_eth.o
 .debug_abbrev  0x0000000000000000      0x4d7 ./Peripheral/src/ch32v30x_eth.o
 .debug_loc     0x0000000000000000     0x12ab ./Peripheral/src/ch32v30x_eth.o
 .debug_aranges
                0x0000000000000000      0x300 ./Peripheral/src/ch32v30x_eth.o
 .debug_ranges  0x0000000000000000      0x380 ./Peripheral/src/ch32v30x_eth.o
 .debug_line    0x0000000000000000     0x3694 ./Peripheral/src/ch32v30x_eth.o
 .debug_str     0x0000000000000000     0x18f8 ./Peripheral/src/ch32v30x_eth.o
 .comment       0x0000000000000000       0x34 ./Peripheral/src/ch32v30x_eth.o
 .debug_frame   0x0000000000000000      0x678 ./Peripheral/src/ch32v30x_eth.o
 .text          0x0000000000000000        0x0 ./Peripheral/src/ch32v30x_exti.o
 .data          0x0000000000000000        0x0 ./Peripheral/src/ch32v30x_exti.o
 .bss           0x0000000000000000        0x0 ./Peripheral/src/ch32v30x_exti.o
 .text.EXTI_DeInit
                0x0000000000000000       0x22 ./Peripheral/src/ch32v30x_exti.o
 .text.EXTI_Init
                0x0000000000000000       0x6e ./Peripheral/src/ch32v30x_exti.o
 .text.EXTI_StructInit
                0x0000000000000000       0x12 ./Peripheral/src/ch32v30x_exti.o
 .text.EXTI_GenerateSWInterrupt
                0x0000000000000000       0x10 ./Peripheral/src/ch32v30x_exti.o
 .text.EXTI_GetFlagStatus
                0x0000000000000000       0x12 ./Peripheral/src/ch32v30x_exti.o
 .text.EXTI_ClearFlag
                0x0000000000000000        0xa ./Peripheral/src/ch32v30x_exti.o
 .text.EXTI_GetITStatus
                0x0000000000000000       0x1e ./Peripheral/src/ch32v30x_exti.o
 .text.EXTI_ClearITPendingBit
                0x0000000000000000        0xa ./Peripheral/src/ch32v30x_exti.o
 .debug_info    0x0000000000000000      0xc0d ./Peripheral/src/ch32v30x_exti.o
 .debug_abbrev  0x0000000000000000      0x2da ./Peripheral/src/ch32v30x_exti.o
 .debug_loc     0x0000000000000000      0x16d ./Peripheral/src/ch32v30x_exti.o
 .debug_aranges
                0x0000000000000000       0x50 ./Peripheral/src/ch32v30x_exti.o
 .debug_ranges  0x0000000000000000       0x40 ./Peripheral/src/ch32v30x_exti.o
 .debug_line    0x0000000000000000      0x5c3 ./Peripheral/src/ch32v30x_exti.o
 .debug_str     0x0000000000000000      0x788 ./Peripheral/src/ch32v30x_exti.o
 .comment       0x0000000000000000       0x34 ./Peripheral/src/ch32v30x_exti.o
 .debug_frame   0x0000000000000000       0x90 ./Peripheral/src/ch32v30x_exti.o
 .text          0x0000000000000000        0x0 ./Peripheral/src/ch32v30x_flash.o
 .data          0x0000000000000000        0x0 ./Peripheral/src/ch32v30x_flash.o
 .bss           0x0000000000000000        0x0 ./Peripheral/src/ch32v30x_flash.o
 .text.FLASH_Unlock
                0x0000000000000000       0x1a ./Peripheral/src/ch32v30x_flash.o
 .text.FLASH_UnlockBank1
                0x0000000000000000       0x1a ./Peripheral/src/ch32v30x_flash.o
 .text.FLASH_Lock
                0x0000000000000000        0xe ./Peripheral/src/ch32v30x_flash.o
 .text.FLASH_LockBank1
                0x0000000000000000        0xe ./Peripheral/src/ch32v30x_flash.o
 .text.FLASH_ErasePage
                0x0000000000000000       0xa2 ./Peripheral/src/ch32v30x_flash.o
 .text.FLASH_EraseAllPages
                0x0000000000000000       0x9c ./Peripheral/src/ch32v30x_flash.o
 .text.FLASH_EraseAllBank1Pages
                0x0000000000000000       0x9c ./Peripheral/src/ch32v30x_flash.o
 .text.FLASH_EraseOptionBytes
                0x0000000000000000      0x170 ./Peripheral/src/ch32v30x_flash.o
 .text.FLASH_ProgramWord
                0x0000000000000000       0xf8 ./Peripheral/src/ch32v30x_flash.o
 .text.FLASH_ProgramHalfWord
                0x0000000000000000       0x96 ./Peripheral/src/ch32v30x_flash.o
 .text.FLASH_ProgramOptionByteData
                0x0000000000000000      0x13c ./Peripheral/src/ch32v30x_flash.o
 .text.FLASH_EnableWriteProtection
                0x0000000000000000      0x13e ./Peripheral/src/ch32v30x_flash.o
 .text.FLASH_ReadOutProtection
                0x0000000000000000      0x12e ./Peripheral/src/ch32v30x_flash.o
 .text.FLASH_UserOptionByteConfig
                0x0000000000000000      0x128 ./Peripheral/src/ch32v30x_flash.o
 .text.FLASH_GetUserOptionByte
                0x0000000000000000        0xa ./Peripheral/src/ch32v30x_flash.o
 .text.FLASH_GetWriteProtectionOptionByte
                0x0000000000000000        0x8 ./Peripheral/src/ch32v30x_flash.o
 .text.FLASH_GetReadOutProtectionStatus
                0x0000000000000000        0xc ./Peripheral/src/ch32v30x_flash.o
 .text.FLASH_ITConfig
                0x0000000000000000       0x1e ./Peripheral/src/ch32v30x_flash.o
 .text.FLASH_GetFlagStatus
                0x0000000000000000       0x1e ./Peripheral/src/ch32v30x_flash.o
 .text.FLASH_ClearFlag
                0x0000000000000000        0x8 ./Peripheral/src/ch32v30x_flash.o
 .text.FLASH_GetStatus
                0x0000000000000000       0x18 ./Peripheral/src/ch32v30x_flash.o
 .text.FLASH_GetBank1Status
                0x0000000000000000       0x18 ./Peripheral/src/ch32v30x_flash.o
 .text.FLASH_WaitForLastOperation
                0x0000000000000000       0x4c ./Peripheral/src/ch32v30x_flash.o
 .text.FLASH_WaitForLastBank1Operation
                0x0000000000000000       0x4c ./Peripheral/src/ch32v30x_flash.o
 .text.FLASH_Unlock_Fast
                0x0000000000000000       0x1e ./Peripheral/src/ch32v30x_flash.o
 .text.FLASH_Lock_Fast
                0x0000000000000000        0xe ./Peripheral/src/ch32v30x_flash.o
 .text.FLASH_ErasePage_Fast
                0x0000000000000000       0x32 ./Peripheral/src/ch32v30x_flash.o
 .text.FLASH_EraseBlock_32K_Fast
                0x0000000000000000       0x34 ./Peripheral/src/ch32v30x_flash.o
 .text.FLASH_EraseBlock_64K_Fast
                0x0000000000000000       0x34 ./Peripheral/src/ch32v30x_flash.o
 .text.FLASH_ProgramPage_Fast
                0x0000000000000000       0x60 ./Peripheral/src/ch32v30x_flash.o
 .text.FLASH_Access_Clock_Cfg
                0x0000000000000000       0x18 ./Peripheral/src/ch32v30x_flash.o
 .text.FLASH_Enhance_Mode
                0x0000000000000000       0x2e ./Peripheral/src/ch32v30x_flash.o
 .debug_info    0x0000000000000000     0x1b89 ./Peripheral/src/ch32v30x_flash.o
 .debug_abbrev  0x0000000000000000      0x4a3 ./Peripheral/src/ch32v30x_flash.o
 .debug_loc     0x0000000000000000     0x1578 ./Peripheral/src/ch32v30x_flash.o
 .debug_aranges
                0x0000000000000000       0xf8 ./Peripheral/src/ch32v30x_flash.o
 .debug_ranges  0x0000000000000000      0xa38 ./Peripheral/src/ch32v30x_flash.o
 .debug_line    0x0000000000000000     0x2fa7 ./Peripheral/src/ch32v30x_flash.o
 .debug_str     0x0000000000000000      0xa6f ./Peripheral/src/ch32v30x_flash.o
 .comment       0x0000000000000000       0x34 ./Peripheral/src/ch32v30x_flash.o
 .debug_frame   0x0000000000000000      0x258 ./Peripheral/src/ch32v30x_flash.o
 .text          0x0000000000000000        0x0 ./Peripheral/src/ch32v30x_fsmc.o
 .data          0x0000000000000000        0x0 ./Peripheral/src/ch32v30x_fsmc.o
 .bss           0x0000000000000000        0x0 ./Peripheral/src/ch32v30x_fsmc.o
 .text.FSMC_NORSRAMDeInit
                0x0000000000000000       0x3a ./Peripheral/src/ch32v30x_fsmc.o
 .text.FSMC_NANDDeInit
                0x0000000000000000       0x28 ./Peripheral/src/ch32v30x_fsmc.o
 .text.FSMC_NORSRAMInit
                0x0000000000000000       0xda ./Peripheral/src/ch32v30x_fsmc.o
 .text.FSMC_NANDInit
                0x0000000000000000       0x88 ./Peripheral/src/ch32v30x_fsmc.o
 .text.FSMC_NORSRAMStructInit
                0x0000000000000000       0x60 ./Peripheral/src/ch32v30x_fsmc.o
 .text.FSMC_NANDStructInit
                0x0000000000000000       0x36 ./Peripheral/src/ch32v30x_fsmc.o
 .text.FSMC_NORSRAMCmd
                0x0000000000000000       0x20 ./Peripheral/src/ch32v30x_fsmc.o
 .text.FSMC_NANDCmd
                0x0000000000000000       0x2e ./Peripheral/src/ch32v30x_fsmc.o
 .text.FSMC_NANDECCCmd
                0x0000000000000000       0x30 ./Peripheral/src/ch32v30x_fsmc.o
 .text.FSMC_GetECC
                0x0000000000000000       0x12 ./Peripheral/src/ch32v30x_fsmc.o
 .text.FSMC_ITConfig
                0x0000000000000000       0x2a ./Peripheral/src/ch32v30x_fsmc.o
 .text.FSMC_GetFlagStatus
                0x0000000000000000       0x18 ./Peripheral/src/ch32v30x_fsmc.o
 .text.FSMC_ClearFlag
                0x0000000000000000       0x18 ./Peripheral/src/ch32v30x_fsmc.o
 .text.FSMC_GetITStatus
                0x0000000000000000       0x24 ./Peripheral/src/ch32v30x_fsmc.o
 .text.FSMC_ClearITPendingBit
                0x0000000000000000       0x1a ./Peripheral/src/ch32v30x_fsmc.o
 .debug_info    0x0000000000000000     0x1051 ./Peripheral/src/ch32v30x_fsmc.o
 .debug_abbrev  0x0000000000000000      0x2d9 ./Peripheral/src/ch32v30x_fsmc.o
 .debug_loc     0x0000000000000000      0x439 ./Peripheral/src/ch32v30x_fsmc.o
 .debug_aranges
                0x0000000000000000       0x90 ./Peripheral/src/ch32v30x_fsmc.o
 .debug_ranges  0x0000000000000000       0x80 ./Peripheral/src/ch32v30x_fsmc.o
 .debug_line    0x0000000000000000      0xec5 ./Peripheral/src/ch32v30x_fsmc.o
 .debug_str     0x0000000000000000      0xac3 ./Peripheral/src/ch32v30x_fsmc.o
 .comment       0x0000000000000000       0x34 ./Peripheral/src/ch32v30x_fsmc.o
 .debug_frame   0x0000000000000000      0x100 ./Peripheral/src/ch32v30x_fsmc.o
 .text          0x0000000000000000        0x0 ./Peripheral/src/ch32v30x_gpio.o
 .data          0x0000000000000000        0x0 ./Peripheral/src/ch32v30x_gpio.o
 .bss           0x0000000000000000        0x0 ./Peripheral/src/ch32v30x_gpio.o
 .text.GPIO_DeInit
                0x0000000000000000       0xd8 ./Peripheral/src/ch32v30x_gpio.o
 .text.GPIO_AFIODeInit
                0x0000000000000000       0x28 ./Peripheral/src/ch32v30x_gpio.o
 .text.GPIO_StructInit
                0x0000000000000000        0xe ./Peripheral/src/ch32v30x_gpio.o
 .text.GPIO_ReadInputData
                0x0000000000000000        0x8 ./Peripheral/src/ch32v30x_gpio.o
 .text.GPIO_ReadOutputDataBit
                0x0000000000000000        0xa ./Peripheral/src/ch32v30x_gpio.o
 .text.GPIO_ReadOutputData
                0x0000000000000000        0x8 ./Peripheral/src/ch32v30x_gpio.o
 .text.GPIO_ResetBits
                0x0000000000000000        0x4 ./Peripheral/src/ch32v30x_gpio.o
 .text.GPIO_WriteBit
                0x0000000000000000        0xa ./Peripheral/src/ch32v30x_gpio.o
 .text.GPIO_Write
                0x0000000000000000        0x4 ./Peripheral/src/ch32v30x_gpio.o
 .text.GPIO_PinLockConfig
                0x0000000000000000       0x10 ./Peripheral/src/ch32v30x_gpio.o
 .text.GPIO_EventOutputConfig
                0x0000000000000000       0x18 ./Peripheral/src/ch32v30x_gpio.o
 .text.GPIO_EventOutputCmd
                0x0000000000000000       0x18 ./Peripheral/src/ch32v30x_gpio.o
 .text.GPIO_PinRemapConfig
                0x0000000000000000       0xde ./Peripheral/src/ch32v30x_gpio.o
 .text.GPIO_EXTILineConfig
                0x0000000000000000       0x2a ./Peripheral/src/ch32v30x_gpio.o
 .text.GPIO_ETH_MediaInterfaceConfig
                0x0000000000000000       0x24 ./Peripheral/src/ch32v30x_gpio.o
 .text          0x0000000000000000        0x0 ./Peripheral/src/ch32v30x_i2c.o
 .data          0x0000000000000000        0x0 ./Peripheral/src/ch32v30x_i2c.o
 .bss           0x0000000000000000        0x0 ./Peripheral/src/ch32v30x_i2c.o
 .text.I2C_DeInit
                0x0000000000000000       0x5a ./Peripheral/src/ch32v30x_i2c.o
 .text.I2C_Init
                0x0000000000000000      0x110 ./Peripheral/src/ch32v30x_i2c.o
 .text.I2C_StructInit
                0x0000000000000000       0x18 ./Peripheral/src/ch32v30x_i2c.o
 .text.I2C_Cmd  0x0000000000000000       0x1a ./Peripheral/src/ch32v30x_i2c.o
 .text.I2C_DMACmd
                0x0000000000000000       0x20 ./Peripheral/src/ch32v30x_i2c.o
 .text.I2C_DMALastTransferCmd
                0x0000000000000000       0x18 ./Peripheral/src/ch32v30x_i2c.o
 .text.I2C_GenerateSTART
                0x0000000000000000       0x1c ./Peripheral/src/ch32v30x_i2c.o
 .text.I2C_GenerateSTOP
                0x0000000000000000       0x1c ./Peripheral/src/ch32v30x_i2c.o
 .text.I2C_AcknowledgeConfig
                0x0000000000000000       0x1c ./Peripheral/src/ch32v30x_i2c.o
 .text.I2C_OwnAddress2Config
                0x0000000000000000       0x14 ./Peripheral/src/ch32v30x_i2c.o
 .text.I2C_DualAddressCmd
                0x0000000000000000       0x1a ./Peripheral/src/ch32v30x_i2c.o
 .text.I2C_GeneralCallCmd
                0x0000000000000000       0x1c ./Peripheral/src/ch32v30x_i2c.o
 .text.I2C_ITConfig
                0x0000000000000000       0x14 ./Peripheral/src/ch32v30x_i2c.o
 .text.I2C_SendData
                0x0000000000000000        0x4 ./Peripheral/src/ch32v30x_i2c.o
 .text.I2C_ReceiveData
                0x0000000000000000        0x8 ./Peripheral/src/ch32v30x_i2c.o
 .text.I2C_Send7bitAddress
                0x0000000000000000       0x12 ./Peripheral/src/ch32v30x_i2c.o
 .text.I2C_ReadRegister
                0x0000000000000000       0x14 ./Peripheral/src/ch32v30x_i2c.o
 .text.I2C_SoftwareResetCmd
                0x0000000000000000       0x14 ./Peripheral/src/ch32v30x_i2c.o
 .text.I2C_NACKPositionConfig
                0x0000000000000000       0x24 ./Peripheral/src/ch32v30x_i2c.o
 .text.I2C_SMBusAlertConfig
                0x0000000000000000       0x1c ./Peripheral/src/ch32v30x_i2c.o
 .text.I2C_TransmitPEC
                0x0000000000000000       0x18 ./Peripheral/src/ch32v30x_i2c.o
 .text.I2C_PECPositionConfig
                0x0000000000000000       0x24 ./Peripheral/src/ch32v30x_i2c.o
 .text.I2C_CalculatePEC
                0x0000000000000000       0x1c ./Peripheral/src/ch32v30x_i2c.o
 .text.I2C_GetPEC
                0x0000000000000000        0x6 ./Peripheral/src/ch32v30x_i2c.o
 .text.I2C_ARPCmd
                0x0000000000000000       0x1a ./Peripheral/src/ch32v30x_i2c.o
 .text.I2C_StretchClockCmd
                0x0000000000000000       0x1c ./Peripheral/src/ch32v30x_i2c.o
 .text.I2C_FastModeDutyCycleConfig
                0x0000000000000000       0x1c ./Peripheral/src/ch32v30x_i2c.o
 .text.I2C_CheckEvent
                0x0000000000000000       0x18 ./Peripheral/src/ch32v30x_i2c.o
 .text.I2C_GetLastEvent
                0x0000000000000000        0xe ./Peripheral/src/ch32v30x_i2c.o
 .text.I2C_GetFlagStatus
                0x0000000000000000       0x40 ./Peripheral/src/ch32v30x_i2c.o
 .text.I2C_ClearFlag
                0x0000000000000000        0xc ./Peripheral/src/ch32v30x_i2c.o
 .text.I2C_GetITStatus
                0x0000000000000000       0x20 ./Peripheral/src/ch32v30x_i2c.o
 .text.I2C_ClearITPendingBit
                0x0000000000000000        0xc ./Peripheral/src/ch32v30x_i2c.o
 .debug_info    0x0000000000000000     0x14c1 ./Peripheral/src/ch32v30x_i2c.o
 .debug_abbrev  0x0000000000000000      0x39c ./Peripheral/src/ch32v30x_i2c.o
 .debug_loc     0x0000000000000000      0x74c ./Peripheral/src/ch32v30x_i2c.o
 .debug_aranges
                0x0000000000000000      0x110 ./Peripheral/src/ch32v30x_i2c.o
 .debug_ranges  0x0000000000000000      0x100 ./Peripheral/src/ch32v30x_i2c.o
 .debug_line    0x0000000000000000     0x10f3 ./Peripheral/src/ch32v30x_i2c.o
 .debug_str     0x0000000000000000      0xadb ./Peripheral/src/ch32v30x_i2c.o
 .comment       0x0000000000000000       0x34 ./Peripheral/src/ch32v30x_i2c.o
 .debug_frame   0x0000000000000000      0x260 ./Peripheral/src/ch32v30x_i2c.o
 .text          0x0000000000000000        0x0 ./Peripheral/src/ch32v30x_iwdg.o
 .data          0x0000000000000000        0x0 ./Peripheral/src/ch32v30x_iwdg.o
 .bss           0x0000000000000000        0x0 ./Peripheral/src/ch32v30x_iwdg.o
 .text.IWDG_WriteAccessCmd
                0x0000000000000000        0x8 ./Peripheral/src/ch32v30x_iwdg.o
 .text.IWDG_SetPrescaler
                0x0000000000000000        0x8 ./Peripheral/src/ch32v30x_iwdg.o
 .text.IWDG_SetReload
                0x0000000000000000        0x8 ./Peripheral/src/ch32v30x_iwdg.o
 .text.IWDG_ReloadCounter
                0x0000000000000000        0xe ./Peripheral/src/ch32v30x_iwdg.o
 .text.IWDG_Enable
                0x0000000000000000        0xe ./Peripheral/src/ch32v30x_iwdg.o
 .text.IWDG_GetFlagStatus
                0x0000000000000000        0xe ./Peripheral/src/ch32v30x_iwdg.o
 .debug_info    0x0000000000000000      0xab4 ./Peripheral/src/ch32v30x_iwdg.o
 .debug_abbrev  0x0000000000000000      0x282 ./Peripheral/src/ch32v30x_iwdg.o
 .debug_loc     0x0000000000000000       0x68 ./Peripheral/src/ch32v30x_iwdg.o
 .debug_aranges
                0x0000000000000000       0x48 ./Peripheral/src/ch32v30x_iwdg.o
 .debug_ranges  0x0000000000000000       0x38 ./Peripheral/src/ch32v30x_iwdg.o
 .debug_line    0x0000000000000000      0x38e ./Peripheral/src/ch32v30x_iwdg.o
 .debug_str     0x0000000000000000      0x69a ./Peripheral/src/ch32v30x_iwdg.o
 .comment       0x0000000000000000       0x34 ./Peripheral/src/ch32v30x_iwdg.o
 .debug_frame   0x0000000000000000       0x70 ./Peripheral/src/ch32v30x_iwdg.o
 .text          0x0000000000000000        0x0 ./Peripheral/src/ch32v30x_misc.o
 .data          0x0000000000000000        0x0 ./Peripheral/src/ch32v30x_misc.o
 .bss           0x0000000000000000        0x0 ./Peripheral/src/ch32v30x_misc.o
 .text.NVIC_Init
                0x0000000000000000       0xd8 ./Peripheral/src/ch32v30x_misc.o
 .text          0x0000000000000000        0x0 ./Peripheral/src/ch32v30x_opa.o
 .data          0x0000000000000000        0x0 ./Peripheral/src/ch32v30x_opa.o
 .bss           0x0000000000000000        0x0 ./Peripheral/src/ch32v30x_opa.o
 .text.OPA_DeInit
                0x0000000000000000        0xa ./Peripheral/src/ch32v30x_opa.o
 .text.OPA_Init
                0x0000000000000000       0x36 ./Peripheral/src/ch32v30x_opa.o
 .text.OPA_StructInit
                0x0000000000000000       0x12 ./Peripheral/src/ch32v30x_opa.o
 .text.OPA_Cmd  0x0000000000000000       0x30 ./Peripheral/src/ch32v30x_opa.o
 .debug_info    0x0000000000000000      0xb2a ./Peripheral/src/ch32v30x_opa.o
 .debug_abbrev  0x0000000000000000      0x252 ./Peripheral/src/ch32v30x_opa.o
 .debug_loc     0x0000000000000000       0x77 ./Peripheral/src/ch32v30x_opa.o
 .debug_aranges
                0x0000000000000000       0x38 ./Peripheral/src/ch32v30x_opa.o
 .debug_ranges  0x0000000000000000       0x28 ./Peripheral/src/ch32v30x_opa.o
 .debug_line    0x0000000000000000      0x43d ./Peripheral/src/ch32v30x_opa.o
 .debug_str     0x0000000000000000      0x6b6 ./Peripheral/src/ch32v30x_opa.o
 .comment       0x0000000000000000       0x34 ./Peripheral/src/ch32v30x_opa.o
 .debug_frame   0x0000000000000000       0x50 ./Peripheral/src/ch32v30x_opa.o
 .text          0x0000000000000000        0x0 ./Peripheral/src/ch32v30x_pwr.o
 .data          0x0000000000000000        0x0 ./Peripheral/src/ch32v30x_pwr.o
 .bss           0x0000000000000000        0x0 ./Peripheral/src/ch32v30x_pwr.o
 .text.PWR_DeInit
                0x0000000000000000       0x2c ./Peripheral/src/ch32v30x_pwr.o
 .text.PWR_BackupAccessCmd
                0x0000000000000000       0x18 ./Peripheral/src/ch32v30x_pwr.o
 .text.PWR_PVDCmd
                0x0000000000000000       0x16 ./Peripheral/src/ch32v30x_pwr.o
 .text.PWR_PVDLevelConfig
                0x0000000000000000       0x10 ./Peripheral/src/ch32v30x_pwr.o
 .text.PWR_WakeUpPinCmd
                0x0000000000000000       0x18 ./Peripheral/src/ch32v30x_pwr.o
 .text.PWR_EnterSTOPMode
                0x0000000000000000       0x76 ./Peripheral/src/ch32v30x_pwr.o
 .text.PWR_EnterSTANDBYMode
                0x0000000000000000       0x34 ./Peripheral/src/ch32v30x_pwr.o
 .text.PWR_GetFlagStatus
                0x0000000000000000        0xe ./Peripheral/src/ch32v30x_pwr.o
 .text.PWR_ClearFlag
                0x0000000000000000        0xe ./Peripheral/src/ch32v30x_pwr.o
 .text.PWR_EnterSTANDBYMode_RAM
                0x0000000000000000       0x30 ./Peripheral/src/ch32v30x_pwr.o
 .text.PWR_EnterSTANDBYMode_RAM_LV
                0x0000000000000000       0x30 ./Peripheral/src/ch32v30x_pwr.o
 .text.PWR_EnterSTANDBYMode_RAM_VBAT_EN
                0x0000000000000000       0x30 ./Peripheral/src/ch32v30x_pwr.o
 .text.PWR_EnterSTANDBYMode_RAM_LV_VBAT_EN
                0x0000000000000000       0x30 ./Peripheral/src/ch32v30x_pwr.o
 .text.PWR_EnterSTOPMode_RAM_LV
                0x0000000000000000       0x7c ./Peripheral/src/ch32v30x_pwr.o
 .debug_info    0x0000000000000000      0xf99 ./Peripheral/src/ch32v30x_pwr.o
 .debug_abbrev  0x0000000000000000      0x3a8 ./Peripheral/src/ch32v30x_pwr.o
 .debug_loc     0x0000000000000000      0x278 ./Peripheral/src/ch32v30x_pwr.o
 .debug_aranges
                0x0000000000000000       0x88 ./Peripheral/src/ch32v30x_pwr.o
 .debug_ranges  0x0000000000000000       0xa8 ./Peripheral/src/ch32v30x_pwr.o
 .debug_line    0x0000000000000000      0xa9b ./Peripheral/src/ch32v30x_pwr.o
 .debug_str     0x0000000000000000      0x848 ./Peripheral/src/ch32v30x_pwr.o
 .comment       0x0000000000000000       0x34 ./Peripheral/src/ch32v30x_pwr.o
 .debug_frame   0x0000000000000000       0xfc ./Peripheral/src/ch32v30x_pwr.o
 .text          0x0000000000000000        0x0 ./Peripheral/src/ch32v30x_rcc.o
 .data          0x0000000000000000        0x0 ./Peripheral/src/ch32v30x_rcc.o
 .bss           0x0000000000000000        0x0 ./Peripheral/src/ch32v30x_rcc.o
 .text.RCC_DeInit
                0x0000000000000000       0x52 ./Peripheral/src/ch32v30x_rcc.o
 .text.RCC_HSEConfig
                0x0000000000000000       0x3e ./Peripheral/src/ch32v30x_rcc.o
 .text.RCC_WaitForHSEStartUp
                0x0000000000000000       0x3c ./Peripheral/src/ch32v30x_rcc.o
 .text.RCC_AdjustHSICalibrationValue
                0x0000000000000000       0x12 ./Peripheral/src/ch32v30x_rcc.o
 .text.RCC_HSICmd
                0x0000000000000000       0x16 ./Peripheral/src/ch32v30x_rcc.o
 .text.RCC_PLLConfig
                0x0000000000000000       0x3e ./Peripheral/src/ch32v30x_rcc.o
 .text.RCC_PLLCmd
                0x0000000000000000       0x24 ./Peripheral/src/ch32v30x_rcc.o
 .text.RCC_SYSCLKConfig
                0x0000000000000000        0xe ./Peripheral/src/ch32v30x_rcc.o
 .text.RCC_GetSYSCLKSource
                0x0000000000000000        0xa ./Peripheral/src/ch32v30x_rcc.o
 .text.RCC_HCLKConfig
                0x0000000000000000       0x10 ./Peripheral/src/ch32v30x_rcc.o
 .text.RCC_PCLK1Config
                0x0000000000000000       0x10 ./Peripheral/src/ch32v30x_rcc.o
 .text.RCC_PCLK2Config
                0x0000000000000000       0x16 ./Peripheral/src/ch32v30x_rcc.o
 .text.RCC_ITConfig
                0x0000000000000000       0x18 ./Peripheral/src/ch32v30x_rcc.o
 .text.RCC_ADCCLKConfig
                0x0000000000000000       0x12 ./Peripheral/src/ch32v30x_rcc.o
 .text.RCC_LSEConfig
                0x0000000000000000       0x28 ./Peripheral/src/ch32v30x_rcc.o
 .text.RCC_LSICmd
                0x0000000000000000       0x16 ./Peripheral/src/ch32v30x_rcc.o
 .text.RCC_RTCCLKConfig
                0x0000000000000000        0xc ./Peripheral/src/ch32v30x_rcc.o
 .text.RCC_RTCCLKCmd
                0x0000000000000000       0x20 ./Peripheral/src/ch32v30x_rcc.o
 .text.RCC_APB2PeriphResetCmd
                0x0000000000000000       0x1e ./Peripheral/src/ch32v30x_rcc.o
 .text.RCC_APB1PeriphResetCmd
                0x0000000000000000       0x1e ./Peripheral/src/ch32v30x_rcc.o
 .text.RCC_BackupResetCmd
                0x0000000000000000       0x20 ./Peripheral/src/ch32v30x_rcc.o
 .text.RCC_ClockSecuritySystemCmd
                0x0000000000000000       0x24 ./Peripheral/src/ch32v30x_rcc.o
 .text.RCC_MCOConfig
                0x0000000000000000        0x8 ./Peripheral/src/ch32v30x_rcc.o
 .text.RCC_GetFlagStatus
                0x0000000000000000       0x3a ./Peripheral/src/ch32v30x_rcc.o
 .text.RCC_ClearFlag
                0x0000000000000000       0x10 ./Peripheral/src/ch32v30x_rcc.o
 .text.RCC_GetITStatus
                0x0000000000000000        0xe ./Peripheral/src/ch32v30x_rcc.o
 .text.RCC_ClearITPendingBit
                0x0000000000000000        0x8 ./Peripheral/src/ch32v30x_rcc.o
 .text.RCC_PREDIV1Config
                0x0000000000000000       0x14 ./Peripheral/src/ch32v30x_rcc.o
 .text.RCC_PREDIV2Config
                0x0000000000000000       0x10 ./Peripheral/src/ch32v30x_rcc.o
 .text.RCC_PLL2Config
                0x0000000000000000       0x14 ./Peripheral/src/ch32v30x_rcc.o
 .text.RCC_PLL2Cmd
                0x0000000000000000       0x24 ./Peripheral/src/ch32v30x_rcc.o
 .text.RCC_PLL3Config
                0x0000000000000000       0x12 ./Peripheral/src/ch32v30x_rcc.o
 .text.RCC_PLL3Cmd
                0x0000000000000000       0x24 ./Peripheral/src/ch32v30x_rcc.o
 .text.RCC_OTGFSCLKConfig
                0x0000000000000000       0x1a ./Peripheral/src/ch32v30x_rcc.o
 .text.RCC_I2S2CLKConfig
                0x0000000000000000       0x18 ./Peripheral/src/ch32v30x_rcc.o
 .text.RCC_I2S3CLKConfig
                0x0000000000000000       0x1a ./Peripheral/src/ch32v30x_rcc.o
 .text.RCC_AHBPeriphResetCmd
                0x0000000000000000       0x1e ./Peripheral/src/ch32v30x_rcc.o
 .text.RCC_ADCCLKADJcmd
                0x0000000000000000       0x1a ./Peripheral/src/ch32v30x_rcc.o
 .text.RCC_RNGCLKConfig
                0x0000000000000000       0x1a ./Peripheral/src/ch32v30x_rcc.o
 .text.RCC_ETH1GCLKConfig
                0x0000000000000000       0x1a ./Peripheral/src/ch32v30x_rcc.o
 .text.RCC_ETH1G_125Mcmd
                0x0000000000000000       0x24 ./Peripheral/src/ch32v30x_rcc.o
 .text          0x0000000000000000        0x0 ./Peripheral/src/ch32v30x_rng.o
 .data          0x0000000000000000        0x0 ./Peripheral/src/ch32v30x_rng.o
 .bss           0x0000000000000000        0x0 ./Peripheral/src/ch32v30x_rng.o
 .text.RNG_Cmd  0x0000000000000000       0x1c ./Peripheral/src/ch32v30x_rng.o
 .text.RNG_GetRandomNumber
                0x0000000000000000        0xa ./Peripheral/src/ch32v30x_rng.o
 .text.RNG_ITConfig
                0x0000000000000000       0x1c ./Peripheral/src/ch32v30x_rng.o
 .text.RNG_GetFlagStatus
                0x0000000000000000       0x12 ./Peripheral/src/ch32v30x_rng.o
 .text.RNG_ClearFlag
                0x0000000000000000       0x10 ./Peripheral/src/ch32v30x_rng.o
 .text.RNG_GetITStatus
                0x0000000000000000       0x12 ./Peripheral/src/ch32v30x_rng.o
 .text.RNG_ClearITPendingBit
                0x0000000000000000       0x12 ./Peripheral/src/ch32v30x_rng.o
 .debug_info    0x0000000000000000      0xb17 ./Peripheral/src/ch32v30x_rng.o
 .debug_abbrev  0x0000000000000000      0x2b8 ./Peripheral/src/ch32v30x_rng.o
 .debug_loc     0x0000000000000000       0xa8 ./Peripheral/src/ch32v30x_rng.o
 .debug_aranges
                0x0000000000000000       0x48 ./Peripheral/src/ch32v30x_rng.o
 .debug_ranges  0x0000000000000000       0x38 ./Peripheral/src/ch32v30x_rng.o
 .debug_line    0x0000000000000000      0x3fc ./Peripheral/src/ch32v30x_rng.o
 .debug_str     0x0000000000000000      0x687 ./Peripheral/src/ch32v30x_rng.o
 .comment       0x0000000000000000       0x34 ./Peripheral/src/ch32v30x_rng.o
 .debug_frame   0x0000000000000000       0x80 ./Peripheral/src/ch32v30x_rng.o
 .text          0x0000000000000000        0x0 ./Peripheral/src/ch32v30x_rtc.o
 .data          0x0000000000000000        0x0 ./Peripheral/src/ch32v30x_rtc.o
 .bss           0x0000000000000000        0x0 ./Peripheral/src/ch32v30x_rtc.o
 .text.RTC_ITConfig
                0x0000000000000000       0x1e ./Peripheral/src/ch32v30x_rtc.o
 .text.RTC_EnterConfigMode
                0x0000000000000000       0x12 ./Peripheral/src/ch32v30x_rtc.o
 .text.RTC_ExitConfigMode
                0x0000000000000000       0x18 ./Peripheral/src/ch32v30x_rtc.o
 .text.RTC_GetCounter
                0x0000000000000000       0x36 ./Peripheral/src/ch32v30x_rtc.o
 .text.RTC_SetCounter
                0x0000000000000000       0x34 ./Peripheral/src/ch32v30x_rtc.o
 .text.RTC_SetPrescaler
                0x0000000000000000       0x36 ./Peripheral/src/ch32v30x_rtc.o
 .text.RTC_SetAlarm
                0x0000000000000000       0x34 ./Peripheral/src/ch32v30x_rtc.o
 .text.RTC_GetDivider
                0x0000000000000000       0x18 ./Peripheral/src/ch32v30x_rtc.o
 .text.RTC_WaitForLastTask
                0x0000000000000000       0x10 ./Peripheral/src/ch32v30x_rtc.o
 .text.RTC_WaitForSynchro
                0x0000000000000000       0x24 ./Peripheral/src/ch32v30x_rtc.o
 .text.RTC_GetFlagStatus
                0x0000000000000000       0x12 ./Peripheral/src/ch32v30x_rtc.o
 .text.RTC_ClearFlag
                0x0000000000000000       0x14 ./Peripheral/src/ch32v30x_rtc.o
 .text.RTC_GetITStatus
                0x0000000000000000       0x20 ./Peripheral/src/ch32v30x_rtc.o
 .text.RTC_ClearITPendingBit
                0x0000000000000000       0x14 ./Peripheral/src/ch32v30x_rtc.o
 .debug_info    0x0000000000000000      0xd95 ./Peripheral/src/ch32v30x_rtc.o
 .debug_abbrev  0x0000000000000000      0x31d ./Peripheral/src/ch32v30x_rtc.o
 .debug_loc     0x0000000000000000      0x234 ./Peripheral/src/ch32v30x_rtc.o
 .debug_aranges
                0x0000000000000000       0x80 ./Peripheral/src/ch32v30x_rtc.o
 .debug_ranges  0x0000000000000000       0xb8 ./Peripheral/src/ch32v30x_rtc.o
 .debug_line    0x0000000000000000      0x7a6 ./Peripheral/src/ch32v30x_rtc.o
 .debug_str     0x0000000000000000      0x7e7 ./Peripheral/src/ch32v30x_rtc.o
 .comment       0x0000000000000000       0x34 ./Peripheral/src/ch32v30x_rtc.o
 .debug_frame   0x0000000000000000       0xf0 ./Peripheral/src/ch32v30x_rtc.o
 .text          0x0000000000000000        0x0 ./Peripheral/src/ch32v30x_sdio.o
 .data          0x0000000000000000        0x0 ./Peripheral/src/ch32v30x_sdio.o
 .bss           0x0000000000000000        0x0 ./Peripheral/src/ch32v30x_sdio.o
 .text.SDIO_DeInit
                0x0000000000000000       0x30 ./Peripheral/src/ch32v30x_sdio.o
 .text.SDIO_Init
                0x0000000000000000       0x2e ./Peripheral/src/ch32v30x_sdio.o
 .text.SDIO_StructInit
                0x0000000000000000       0x1a ./Peripheral/src/ch32v30x_sdio.o
 .text.SDIO_ClockCmd
                0x0000000000000000       0x18 ./Peripheral/src/ch32v30x_sdio.o
 .text.SDIO_SetPowerState
                0x0000000000000000       0x12 ./Peripheral/src/ch32v30x_sdio.o
 .text.SDIO_GetPowerState
                0x0000000000000000        0xa ./Peripheral/src/ch32v30x_sdio.o
 .text.SDIO_ITConfig
                0x0000000000000000       0x1e ./Peripheral/src/ch32v30x_sdio.o
 .text.SDIO_DMACmd
                0x0000000000000000       0x16 ./Peripheral/src/ch32v30x_sdio.o
 .text.SDIO_SendCommand
                0x0000000000000000       0x26 ./Peripheral/src/ch32v30x_sdio.o
 .text.SDIO_CmdStructInit
                0x0000000000000000       0x16 ./Peripheral/src/ch32v30x_sdio.o
 .text.SDIO_GetCommandResponse
                0x0000000000000000        0xc ./Peripheral/src/ch32v30x_sdio.o
 .text.SDIO_GetResponse
                0x0000000000000000       0x16 ./Peripheral/src/ch32v30x_sdio.o
 .text.SDIO_DataConfig
                0x0000000000000000       0x2a ./Peripheral/src/ch32v30x_sdio.o
 .text.SDIO_DataStructInit
                0x0000000000000000       0x1a ./Peripheral/src/ch32v30x_sdio.o
 .text.SDIO_GetDataCounter
                0x0000000000000000        0x8 ./Peripheral/src/ch32v30x_sdio.o
 .text.SDIO_ReadData
                0x0000000000000000        0xa ./Peripheral/src/ch32v30x_sdio.o
 .text.SDIO_WriteData
                0x0000000000000000        0xa ./Peripheral/src/ch32v30x_sdio.o
 .text.SDIO_GetFIFOCount
                0x0000000000000000        0x8 ./Peripheral/src/ch32v30x_sdio.o
 .text.SDIO_StartSDIOReadWait
                0x0000000000000000       0x18 ./Peripheral/src/ch32v30x_sdio.o
 .text.SDIO_StopSDIOReadWait
                0x0000000000000000       0x18 ./Peripheral/src/ch32v30x_sdio.o
 .text.SDIO_SetSDIOReadWaitMode
                0x0000000000000000       0x18 ./Peripheral/src/ch32v30x_sdio.o
 .text.SDIO_SetSDIOOperation
                0x0000000000000000       0x20 ./Peripheral/src/ch32v30x_sdio.o
 .text.SDIO_SendSDIOSuspendCmd
                0x0000000000000000       0x20 ./Peripheral/src/ch32v30x_sdio.o
 .text.SDIO_CommandCompletionCmd
                0x0000000000000000       0x20 ./Peripheral/src/ch32v30x_sdio.o
 .text.SDIO_CEATAITCmd
                0x0000000000000000       0x20 ./Peripheral/src/ch32v30x_sdio.o
 .text.SDIO_SendCEATACmd
                0x0000000000000000       0x20 ./Peripheral/src/ch32v30x_sdio.o
 .text.SDIO_GetFlagStatus
                0x0000000000000000        0xe ./Peripheral/src/ch32v30x_sdio.o
 .text.SDIO_ClearFlag
                0x0000000000000000        0x8 ./Peripheral/src/ch32v30x_sdio.o
 .text.SDIO_GetITStatus
                0x0000000000000000        0xe ./Peripheral/src/ch32v30x_sdio.o
 .text.SDIO_ClearITPendingBit
                0x0000000000000000        0x8 ./Peripheral/src/ch32v30x_sdio.o
 .debug_info    0x0000000000000000     0x10e6 ./Peripheral/src/ch32v30x_sdio.o
 .debug_abbrev  0x0000000000000000      0x3c0 ./Peripheral/src/ch32v30x_sdio.o
 .debug_loc     0x0000000000000000      0x1bb ./Peripheral/src/ch32v30x_sdio.o
 .debug_aranges
                0x0000000000000000       0xf8 ./Peripheral/src/ch32v30x_sdio.o
 .debug_ranges  0x0000000000000000       0xe8 ./Peripheral/src/ch32v30x_sdio.o
 .debug_line    0x0000000000000000      0xc5a ./Peripheral/src/ch32v30x_sdio.o
 .debug_str     0x0000000000000000      0xa59 ./Peripheral/src/ch32v30x_sdio.o
 .comment       0x0000000000000000       0x34 ./Peripheral/src/ch32v30x_sdio.o
 .debug_frame   0x0000000000000000      0x1f8 ./Peripheral/src/ch32v30x_sdio.o
 .text          0x0000000000000000        0x0 ./Peripheral/src/ch32v30x_spi.o
 .data          0x0000000000000000        0x0 ./Peripheral/src/ch32v30x_spi.o
 .bss           0x0000000000000000        0x0 ./Peripheral/src/ch32v30x_spi.o
 .text.SPI_I2S_DeInit
                0x0000000000000000       0x8c ./Peripheral/src/ch32v30x_spi.o
 .text.SPI_Init
                0x0000000000000000       0x46 ./Peripheral/src/ch32v30x_spi.o
 .text.I2S_Init
                0x0000000000000000       0xea ./Peripheral/src/ch32v30x_spi.o
 .text.SPI_StructInit
                0x0000000000000000       0x22 ./Peripheral/src/ch32v30x_spi.o
 .text.I2S_StructInit
                0x0000000000000000       0x12 ./Peripheral/src/ch32v30x_spi.o
 .text.SPI_Cmd  0x0000000000000000       0x1c ./Peripheral/src/ch32v30x_spi.o
 .text.I2S_Cmd  0x0000000000000000       0x1c ./Peripheral/src/ch32v30x_spi.o
 .text.SPI_I2S_ITConfig
                0x0000000000000000       0x20 ./Peripheral/src/ch32v30x_spi.o
 .text.SPI_I2S_DMACmd
                0x0000000000000000       0x14 ./Peripheral/src/ch32v30x_spi.o
 .text.SPI_I2S_SendData
                0x0000000000000000        0x4 ./Peripheral/src/ch32v30x_spi.o
 .text.SPI_I2S_ReceiveData
                0x0000000000000000        0x4 ./Peripheral/src/ch32v30x_spi.o
 .text.SPI_NSSInternalSoftwareConfig
                0x0000000000000000       0x26 ./Peripheral/src/ch32v30x_spi.o
 .text.SPI_SSOutputCmd
                0x0000000000000000       0x1a ./Peripheral/src/ch32v30x_spi.o
 .text.SPI_DataSizeConfig
                0x0000000000000000       0x14 ./Peripheral/src/ch32v30x_spi.o
 .text.SPI_TransmitCRC
                0x0000000000000000        0xa ./Peripheral/src/ch32v30x_spi.o
 .text.SPI_CalculateCRC
                0x0000000000000000       0x18 ./Peripheral/src/ch32v30x_spi.o
 .text.SPI_GetCRC
                0x0000000000000000       0x16 ./Peripheral/src/ch32v30x_spi.o
 .text.SPI_GetCRCPolynomial
                0x0000000000000000        0x4 ./Peripheral/src/ch32v30x_spi.o
 .text.SPI_BiDirectionalLineConfig
                0x0000000000000000       0x1c ./Peripheral/src/ch32v30x_spi.o
 .text.SPI_I2S_GetFlagStatus
                0x0000000000000000        0xa ./Peripheral/src/ch32v30x_spi.o
 .text.SPI_I2S_ClearFlag
                0x0000000000000000        0xc ./Peripheral/src/ch32v30x_spi.o
 .text.SPI_I2S_GetITStatus
                0x0000000000000000       0x28 ./Peripheral/src/ch32v30x_spi.o
 .text.SPI_I2S_ClearITPendingBit
                0x0000000000000000       0x14 ./Peripheral/src/ch32v30x_spi.o
 .debug_info    0x0000000000000000     0x12f8 ./Peripheral/src/ch32v30x_spi.o
 .debug_abbrev  0x0000000000000000      0x307 ./Peripheral/src/ch32v30x_spi.o
 .debug_loc     0x0000000000000000      0x641 ./Peripheral/src/ch32v30x_spi.o
 .debug_aranges
                0x0000000000000000       0xd0 ./Peripheral/src/ch32v30x_spi.o
 .debug_ranges  0x0000000000000000       0xc0 ./Peripheral/src/ch32v30x_spi.o
 .debug_line    0x0000000000000000      0xcfc ./Peripheral/src/ch32v30x_spi.o
 .debug_str     0x0000000000000000      0xa8a ./Peripheral/src/ch32v30x_spi.o
 .comment       0x0000000000000000       0x34 ./Peripheral/src/ch32v30x_spi.o
 .debug_frame   0x0000000000000000      0x1bc ./Peripheral/src/ch32v30x_spi.o
 .text          0x0000000000000000        0x0 ./Peripheral/src/ch32v30x_tim.o
 .data          0x0000000000000000        0x0 ./Peripheral/src/ch32v30x_tim.o
 .bss           0x0000000000000000        0x0 ./Peripheral/src/ch32v30x_tim.o
 .text.TIM_DeInit
                0x0000000000000000      0x18c ./Peripheral/src/ch32v30x_tim.o
 .text.TIM_TimeBaseInit
                0x0000000000000000       0xb8 ./Peripheral/src/ch32v30x_tim.o
 .text.TIM_OC1Init
                0x0000000000000000       0x92 ./Peripheral/src/ch32v30x_tim.o
 .text.TIM_OC2Init
                0x0000000000000000       0xbc ./Peripheral/src/ch32v30x_tim.o
 .text.TIM_OC3Init
                0x0000000000000000       0xb8 ./Peripheral/src/ch32v30x_tim.o
 .text.TIM_OC4Init
                0x0000000000000000       0x8a ./Peripheral/src/ch32v30x_tim.o
 .text.TIM_ICInit
                0x0000000000000000      0x2f8 ./Peripheral/src/ch32v30x_tim.o
 .text.TIM_PWMIConfig
                0x0000000000000000      0x2e4 ./Peripheral/src/ch32v30x_tim.o
 .text.TIM_BDTRConfig
                0x0000000000000000       0x24 ./Peripheral/src/ch32v30x_tim.o
 .text.TIM_TimeBaseStructInit
                0x0000000000000000       0x16 ./Peripheral/src/ch32v30x_tim.o
 .text.TIM_OCStructInit
                0x0000000000000000       0x22 ./Peripheral/src/ch32v30x_tim.o
 .text.TIM_ICStructInit
                0x0000000000000000       0x16 ./Peripheral/src/ch32v30x_tim.o
 .text.TIM_BDTRStructInit
                0x0000000000000000       0x1e ./Peripheral/src/ch32v30x_tim.o
 .text.TIM_Cmd  0x0000000000000000       0x1a ./Peripheral/src/ch32v30x_tim.o
 .text.TIM_CtrlPWMOutputs
                0x0000000000000000       0x1a ./Peripheral/src/ch32v30x_tim.o
 .text.TIM_ITConfig
                0x0000000000000000       0x14 ./Peripheral/src/ch32v30x_tim.o
 .text.TIM_GenerateEvent
                0x0000000000000000        0x4 ./Peripheral/src/ch32v30x_tim.o
 .text.TIM_DMAConfig
                0x0000000000000000        0x8 ./Peripheral/src/ch32v30x_tim.o
 .text.TIM_DMACmd
                0x0000000000000000       0x14 ./Peripheral/src/ch32v30x_tim.o
 .text.TIM_InternalClockConfig
                0x0000000000000000       0x10 ./Peripheral/src/ch32v30x_tim.o
 .text.TIM_ITRxExternalClockConfig
                0x0000000000000000       0x18 ./Peripheral/src/ch32v30x_tim.o
 .text.TIM_TIxExternalClockConfig
                0x0000000000000000      0x150 ./Peripheral/src/ch32v30x_tim.o
 .text.TIM_ETRClockMode1Config
                0x0000000000000000       0x26 ./Peripheral/src/ch32v30x_tim.o
 .text.TIM_ETRClockMode2Config
                0x0000000000000000       0x1e ./Peripheral/src/ch32v30x_tim.o
 .text.TIM_ETRConfig
                0x0000000000000000       0x16 ./Peripheral/src/ch32v30x_tim.o
 .text.TIM_PrescalerConfig
                0x0000000000000000        0x6 ./Peripheral/src/ch32v30x_tim.o
 .text.TIM_CounterModeConfig
                0x0000000000000000       0x10 ./Peripheral/src/ch32v30x_tim.o
 .text.TIM_SelectInputTrigger
                0x0000000000000000       0x10 ./Peripheral/src/ch32v30x_tim.o
 .text.TIM_EncoderInterfaceConfig
                0x0000000000000000       0x3c ./Peripheral/src/ch32v30x_tim.o
 .text.TIM_ForcedOC1Config
                0x0000000000000000       0x10 ./Peripheral/src/ch32v30x_tim.o
 .text.TIM_ForcedOC2Config
                0x0000000000000000       0x14 ./Peripheral/src/ch32v30x_tim.o
 .text.TIM_ForcedOC3Config
                0x0000000000000000       0x10 ./Peripheral/src/ch32v30x_tim.o
 .text.TIM_ForcedOC4Config
                0x0000000000000000       0x14 ./Peripheral/src/ch32v30x_tim.o
 .text.TIM_ARRPreloadConfig
                0x0000000000000000       0x1c ./Peripheral/src/ch32v30x_tim.o
 .text.TIM_SelectCOM
                0x0000000000000000       0x1a ./Peripheral/src/ch32v30x_tim.o
 .text.TIM_SelectCCDMA
                0x0000000000000000       0x1a ./Peripheral/src/ch32v30x_tim.o
 .text.TIM_CCPreloadControl
                0x0000000000000000       0x1a ./Peripheral/src/ch32v30x_tim.o
 .text.TIM_OC1PreloadConfig
                0x0000000000000000        0xe ./Peripheral/src/ch32v30x_tim.o
 .text.TIM_OC2PreloadConfig
                0x0000000000000000       0x16 ./Peripheral/src/ch32v30x_tim.o
 .text.TIM_OC3PreloadConfig
                0x0000000000000000        0xe ./Peripheral/src/ch32v30x_tim.o
 .text.TIM_OC4PreloadConfig
                0x0000000000000000       0x16 ./Peripheral/src/ch32v30x_tim.o
 .text.TIM_OC1FastConfig
                0x0000000000000000        0xe ./Peripheral/src/ch32v30x_tim.o
 .text.TIM_OC2FastConfig
                0x0000000000000000       0x16 ./Peripheral/src/ch32v30x_tim.o
 .text.TIM_OC3FastConfig
                0x0000000000000000        0xe ./Peripheral/src/ch32v30x_tim.o
 .text.TIM_OC4FastConfig
                0x0000000000000000       0x16 ./Peripheral/src/ch32v30x_tim.o
 .text.TIM_ClearOC1Ref
                0x0000000000000000       0x10 ./Peripheral/src/ch32v30x_tim.o
 .text.TIM_ClearOC2Ref
                0x0000000000000000       0x12 ./Peripheral/src/ch32v30x_tim.o
 .text.TIM_ClearOC3Ref
                0x0000000000000000       0x10 ./Peripheral/src/ch32v30x_tim.o
 .text.TIM_ClearOC4Ref
                0x0000000000000000       0x12 ./Peripheral/src/ch32v30x_tim.o
 .text.TIM_OC1PolarityConfig
                0x0000000000000000        0xe ./Peripheral/src/ch32v30x_tim.o
 .text.TIM_OC1NPolarityConfig
                0x0000000000000000        0xe ./Peripheral/src/ch32v30x_tim.o
 .text.TIM_OC2PolarityConfig
                0x0000000000000000       0x16 ./Peripheral/src/ch32v30x_tim.o
 .text.TIM_OC2NPolarityConfig
                0x0000000000000000       0x16 ./Peripheral/src/ch32v30x_tim.o
 .text.TIM_OC3PolarityConfig
                0x0000000000000000       0x16 ./Peripheral/src/ch32v30x_tim.o
 .text.TIM_OC3NPolarityConfig
                0x0000000000000000       0x16 ./Peripheral/src/ch32v30x_tim.o
 .text.TIM_OC4PolarityConfig
                0x0000000000000000       0x14 ./Peripheral/src/ch32v30x_tim.o
 .text.TIM_CCxCmd
                0x0000000000000000       0x20 ./Peripheral/src/ch32v30x_tim.o
 .text.TIM_CCxNCmd
                0x0000000000000000       0x20 ./Peripheral/src/ch32v30x_tim.o
 .text.TIM_SelectOCxM
                0x0000000000000000       0x4e ./Peripheral/src/ch32v30x_tim.o
 .text.TIM_UpdateDisableConfig
                0x0000000000000000       0x1a ./Peripheral/src/ch32v30x_tim.o
 .text.TIM_UpdateRequestConfig
                0x0000000000000000       0x1a ./Peripheral/src/ch32v30x_tim.o
 .text.TIM_SelectHallSensor
                0x0000000000000000       0x1c ./Peripheral/src/ch32v30x_tim.o
 .text.TIM_SelectOnePulseMode
                0x0000000000000000       0x16 ./Peripheral/src/ch32v30x_tim.o
 .text.TIM_SelectOutputTrigger
                0x0000000000000000       0x18 ./Peripheral/src/ch32v30x_tim.o
 .text.TIM_SelectSlaveMode
                0x0000000000000000       0x16 ./Peripheral/src/ch32v30x_tim.o
 .text.TIM_SelectMasterSlaveMode
                0x0000000000000000       0x18 ./Peripheral/src/ch32v30x_tim.o
 .text.TIM_SetCounter
                0x0000000000000000        0x4 ./Peripheral/src/ch32v30x_tim.o
 .text.TIM_SetAutoreload
                0x0000000000000000        0x4 ./Peripheral/src/ch32v30x_tim.o
 .text.TIM_SetCompare1
                0x0000000000000000        0x4 ./Peripheral/src/ch32v30x_tim.o
 .text.TIM_SetCompare2
                0x0000000000000000        0x4 ./Peripheral/src/ch32v30x_tim.o
 .text.TIM_SetCompare3
                0x0000000000000000        0x4 ./Peripheral/src/ch32v30x_tim.o
 .text.TIM_SetCompare4
                0x0000000000000000        0x6 ./Peripheral/src/ch32v30x_tim.o
 .text.TIM_SetIC1Prescaler
                0x0000000000000000       0x16 ./Peripheral/src/ch32v30x_tim.o
 .text.TIM_SetIC2Prescaler
                0x0000000000000000       0x1a ./Peripheral/src/ch32v30x_tim.o
 .text.TIM_SetIC3Prescaler
                0x0000000000000000       0x16 ./Peripheral/src/ch32v30x_tim.o
 .text.TIM_SetIC4Prescaler
                0x0000000000000000       0x1a ./Peripheral/src/ch32v30x_tim.o
 .text.TIM_SetClockDivision
                0x0000000000000000       0x18 ./Peripheral/src/ch32v30x_tim.o
 .text.TIM_GetCapture1
                0x0000000000000000        0x4 ./Peripheral/src/ch32v30x_tim.o
 .text.TIM_GetCapture2
                0x0000000000000000        0x4 ./Peripheral/src/ch32v30x_tim.o
 .text.TIM_GetCapture3
                0x0000000000000000        0x4 ./Peripheral/src/ch32v30x_tim.o
 .text.TIM_GetCapture4
                0x0000000000000000        0x6 ./Peripheral/src/ch32v30x_tim.o
 .text.TIM_GetCounter
                0x0000000000000000        0x4 ./Peripheral/src/ch32v30x_tim.o
 .text.TIM_GetPrescaler
                0x0000000000000000        0x4 ./Peripheral/src/ch32v30x_tim.o
 .text.TIM_GetFlagStatus
                0x0000000000000000        0xa ./Peripheral/src/ch32v30x_tim.o
 .text.TIM_ClearFlag
                0x0000000000000000        0xc ./Peripheral/src/ch32v30x_tim.o
 .text.TIM_GetITStatus
                0x0000000000000000       0x18 ./Peripheral/src/ch32v30x_tim.o
 .text.TIM_ClearITPendingBit
                0x0000000000000000        0xc ./Peripheral/src/ch32v30x_tim.o
 .debug_info    0x0000000000000000     0x2e6a ./Peripheral/src/ch32v30x_tim.o
 .debug_abbrev  0x0000000000000000      0x404 ./Peripheral/src/ch32v30x_tim.o
 .debug_loc     0x0000000000000000     0x20f1 ./Peripheral/src/ch32v30x_tim.o
 .debug_aranges
                0x0000000000000000      0x2c0 ./Peripheral/src/ch32v30x_tim.o
 .debug_ranges  0x0000000000000000      0x3c0 ./Peripheral/src/ch32v30x_tim.o
 .debug_line    0x0000000000000000     0x3d00 ./Peripheral/src/ch32v30x_tim.o
 .debug_str     0x0000000000000000     0x1276 ./Peripheral/src/ch32v30x_tim.o
 .comment       0x0000000000000000       0x34 ./Peripheral/src/ch32v30x_tim.o
 .debug_frame   0x0000000000000000      0x5a8 ./Peripheral/src/ch32v30x_tim.o
 .text          0x0000000000000000        0x0 ./Peripheral/src/ch32v30x_usart.o
 .data          0x0000000000000000        0x0 ./Peripheral/src/ch32v30x_usart.o
 .bss           0x0000000000000000        0x0 ./Peripheral/src/ch32v30x_usart.o
 .text.USART_DeInit
                0x0000000000000000      0x156 ./Peripheral/src/ch32v30x_usart.o
 .text.USART_StructInit
                0x0000000000000000       0x18 ./Peripheral/src/ch32v30x_usart.o
 .text.USART_ClockInit
                0x0000000000000000       0x22 ./Peripheral/src/ch32v30x_usart.o
 .text.USART_ClockStructInit
                0x0000000000000000       0x12 ./Peripheral/src/ch32v30x_usart.o
 .text.USART_ITConfig
                0x0000000000000000       0x3c ./Peripheral/src/ch32v30x_usart.o
 .text.USART_SetAddress
                0x0000000000000000       0x16 ./Peripheral/src/ch32v30x_usart.o
 .text.USART_WakeUpConfig
                0x0000000000000000       0x14 ./Peripheral/src/ch32v30x_usart.o
 .text.USART_ReceiverWakeUpCmd
                0x0000000000000000       0x1a ./Peripheral/src/ch32v30x_usart.o
 .text.USART_LINBreakDetectLengthConfig
                0x0000000000000000       0x18 ./Peripheral/src/ch32v30x_usart.o
 .text.USART_LINCmd
                0x0000000000000000       0x18 ./Peripheral/src/ch32v30x_usart.o
 .text.USART_ReceiveData
                0x0000000000000000        0x8 ./Peripheral/src/ch32v30x_usart.o
 .text.USART_SendBreak
                0x0000000000000000        0xa ./Peripheral/src/ch32v30x_usart.o
 .text.USART_SetGuardTime
                0x0000000000000000       0x12 ./Peripheral/src/ch32v30x_usart.o
 .text.USART_SetPrescaler
                0x0000000000000000       0x18 ./Peripheral/src/ch32v30x_usart.o
 .text.USART_SmartCardCmd
                0x0000000000000000       0x1c ./Peripheral/src/ch32v30x_usart.o
 .text.USART_SmartCardNACKCmd
                0x0000000000000000       0x1a ./Peripheral/src/ch32v30x_usart.o
 .text.USART_HalfDuplexCmd
                0x0000000000000000       0x1a ./Peripheral/src/ch32v30x_usart.o
 .text.USART_OverSampling8Cmd
                0x0000000000000000       0x14 ./Peripheral/src/ch32v30x_usart.o
 .text.USART_OneBitMethodCmd
                0x0000000000000000       0x20 ./Peripheral/src/ch32v30x_usart.o
 .text.USART_IrDAConfig
                0x0000000000000000       0x16 ./Peripheral/src/ch32v30x_usart.o
 .text.USART_IrDACmd
                0x0000000000000000       0x1a ./Peripheral/src/ch32v30x_usart.o
 .text.USART_GetITStatus
                0x0000000000000000       0x40 ./Peripheral/src/ch32v30x_usart.o
 .text.USART_ClearITPendingBit
                0x0000000000000000       0x14 ./Peripheral/src/ch32v30x_usart.o
 .text          0x0000000000000000        0x0 ./Peripheral/src/ch32v30x_wwdg.o
 .data          0x0000000000000000        0x0 ./Peripheral/src/ch32v30x_wwdg.o
 .bss           0x0000000000000000        0x0 ./Peripheral/src/ch32v30x_wwdg.o
 .text.WWDG_DeInit
                0x0000000000000000       0x2e ./Peripheral/src/ch32v30x_wwdg.o
 .text.WWDG_SetPrescaler
                0x0000000000000000       0x14 ./Peripheral/src/ch32v30x_wwdg.o
 .text.WWDG_SetWindowValue
                0x0000000000000000       0x26 ./Peripheral/src/ch32v30x_wwdg.o
 .text.WWDG_EnableIT
                0x0000000000000000       0x12 ./Peripheral/src/ch32v30x_wwdg.o
 .text.WWDG_SetCounter
                0x0000000000000000        0xe ./Peripheral/src/ch32v30x_wwdg.o
 .text.WWDG_Enable
                0x0000000000000000        0xe ./Peripheral/src/ch32v30x_wwdg.o
 .text.WWDG_GetFlagStatus
                0x0000000000000000        0xa ./Peripheral/src/ch32v30x_wwdg.o
 .text.WWDG_ClearFlag
                0x0000000000000000        0xa ./Peripheral/src/ch32v30x_wwdg.o
 .debug_info    0x0000000000000000      0xb28 ./Peripheral/src/ch32v30x_wwdg.o
 .debug_abbrev  0x0000000000000000      0x29d ./Peripheral/src/ch32v30x_wwdg.o
 .debug_loc     0x0000000000000000       0xae ./Peripheral/src/ch32v30x_wwdg.o
 .debug_aranges
                0x0000000000000000       0x58 ./Peripheral/src/ch32v30x_wwdg.o
 .debug_ranges  0x0000000000000000       0x48 ./Peripheral/src/ch32v30x_wwdg.o
 .debug_line    0x0000000000000000      0x476 ./Peripheral/src/ch32v30x_wwdg.o
 .debug_str     0x0000000000000000      0x6ad ./Peripheral/src/ch32v30x_wwdg.o
 .comment       0x0000000000000000       0x34 ./Peripheral/src/ch32v30x_wwdg.o
 .debug_frame   0x0000000000000000       0xa4 ./Peripheral/src/ch32v30x_wwdg.o
 .text          0x0000000000000000        0x0 ./Debug/debug.o
 .data          0x0000000000000000        0x0 ./Debug/debug.o
 .bss           0x0000000000000000        0x0 ./Debug/debug.o
 .text.Delay_Us
                0x0000000000000000       0x3e ./Debug/debug.o
 .text.Delay_Ms
                0x0000000000000000       0x3e ./Debug/debug.o
 .text.USART_Printf_Init
                0x0000000000000000        0x2 ./Debug/debug.o
 .text          0x0000000000000000        0x0 ./DAP/Source/DAP.o
 .data          0x0000000000000000        0x0 ./DAP/Source/DAP.o
 .bss           0x0000000000000000        0x0 ./DAP/Source/DAP.o
 .text.Delayms  0x0000000000000000       0x1a ./DAP/Source/DAP.o
 .text.DAP_ProcessVendorCommand
                0x0000000000000000        0xa ./DAP/Source/DAP.o
 .text          0x0000000000000000        0x0 ./DAP/Source/DAP_vendor.o
 .data          0x0000000000000000        0x0 ./DAP/Source/DAP_vendor.o
 .bss           0x0000000000000000        0x0 ./DAP/Source/DAP_vendor.o
 .text          0x0000000000000000        0x0 ./DAP/Source/JTAG_DP.o
 .data          0x0000000000000000        0x0 ./DAP/Source/JTAG_DP.o
 .bss           0x0000000000000000        0x0 ./DAP/Source/JTAG_DP.o
 .text          0x0000000000000000        0x0 ./DAP/Source/SWO.o
 .data          0x0000000000000000        0x0 ./DAP/Source/SWO.o
 .bss           0x0000000000000000        0x0 ./DAP/Source/SWO.o
 .debug_info    0x0000000000000000      0xb03 ./DAP/Source/SWO.o
 .debug_abbrev  0x0000000000000000      0x1b8 ./DAP/Source/SWO.o
 .debug_aranges
                0x0000000000000000       0x18 ./DAP/Source/SWO.o
 .debug_line    0x0000000000000000      0x1fb ./DAP/Source/SWO.o
 .debug_str     0x0000000000000000      0x69a ./DAP/Source/SWO.o
 .comment       0x0000000000000000       0x34 ./DAP/Source/SWO.o
 .text          0x0000000000000000        0x0 ./DAP/Source/SW_DP.o
 .data          0x0000000000000000        0x0 ./DAP/Source/SW_DP.o
 .bss           0x0000000000000000        0x0 ./DAP/Source/SW_DP.o
 .text          0x0000000000000000        0x0 ./DAP/Source/UART.o
 .data          0x0000000000000000        0x0 ./DAP/Source/UART.o
 .bss           0x0000000000000000        0x0 ./DAP/Source/UART.o
 .debug_info    0x0000000000000000      0xb03 ./DAP/Source/UART.o
 .debug_abbrev  0x0000000000000000      0x1b8 ./DAP/Source/UART.o
 .debug_aranges
                0x0000000000000000       0x18 ./DAP/Source/UART.o
 .debug_line    0x0000000000000000      0x1fb ./DAP/Source/UART.o
 .debug_str     0x0000000000000000      0x69b ./DAP/Source/UART.o
 .comment       0x0000000000000000       0x34 ./DAP/Source/UART.o
 .text          0x0000000000000000        0x0 ./DAP/swd_host.o
 .data          0x0000000000000000        0x0 ./DAP/swd_host.o
 .bss           0x0000000000000000        0x0 ./DAP/swd_host.o
 .text.swd_read_word.constprop.7
                0x0000000000000000       0xc0 ./DAP/swd_host.o
 .text.osDelay  0x0000000000000000       0x18 ./DAP/swd_host.o
 .text.swd_set_target_reset
                0x0000000000000000       0x5c ./DAP/swd_host.o
 .text.swd_set_reset_connect
                0x0000000000000000        0xa ./DAP/swd_host.o
 .text.int2array
                0x0000000000000000       0x20 ./DAP/swd_host.o
 .text.swd_transfer_retry
                0x0000000000000000       0x34 ./DAP/swd_host.o
 .text.swd_set_soft_reset
                0x0000000000000000        0xa ./DAP/swd_host.o
 .text.swd_init
                0x0000000000000000      0x140 ./DAP/swd_host.o
 .text.swd_off  0x0000000000000000       0xe8 ./DAP/swd_host.o
 .text.swd_clear_errors
                0x0000000000000000       0x4a ./DAP/swd_host.o
 .text.swd_read_dp
                0x0000000000000000       0x5a ./DAP/swd_host.o
 .text.swd_write_dp
                0x0000000000000000       0x74 ./DAP/swd_host.o
 .text.swd_read_ap
                0x0000000000000000       0xd8 ./DAP/swd_host.o
 .text.swd_write_ap
                0x0000000000000000       0xf0 ./DAP/swd_host.o
 .text.swd_read_word
                0x0000000000000000       0xba ./DAP/swd_host.o
 .text.swd_write_word
                0x0000000000000000       0x36 ./DAP/swd_host.o
 .text.swd_read_byte
                0x0000000000000000       0xcc ./DAP/swd_host.o
 .text.swd_write_byte
                0x0000000000000000       0x3e ./DAP/swd_host.o
 .text.swd_read_memory
                0x0000000000000000      0x1e6 ./DAP/swd_host.o
 .text.swd_write_memory
                0x0000000000000000      0x180 ./DAP/swd_host.o
 .text.swd_read_core_register
                0x0000000000000000      0x102 ./DAP/swd_host.o
 .text.swd_write_core_register
                0x0000000000000000       0xfa ./DAP/swd_host.o
 .text.JTAG2SWD
                0x0000000000000000       0x90 ./DAP/swd_host.o
 .text.swd_init_debug
                0x0000000000000000      0x340 ./DAP/swd_host.o
 .text.swd_set_target_state_hw
                0x0000000000000000      0x7c2 ./DAP/swd_host.o
 .rodata.swd_set_target_state_hw
                0x0000000000000000       0x20 ./DAP/swd_host.o
 .text.swd_set_target_state_sw
                0x0000000000000000      0x832 ./DAP/swd_host.o
 .rodata.swd_set_target_state_sw
                0x0000000000000000       0x20 ./DAP/swd_host.o
 .sbss.reset_connect
                0x0000000000000000        0x4 ./DAP/swd_host.o
 .sdata.soft_reset
                0x0000000000000000        0x4 ./DAP/swd_host.o
 .text          0x0000000000000000        0x0 ./Core/core_riscv.o
 .data          0x0000000000000000        0x0 ./Core/core_riscv.o
 .bss           0x0000000000000000        0x0 ./Core/core_riscv.o
 .text.__get_FFLAGS
                0x0000000000000000        0x6 ./Core/core_riscv.o
 .text.__set_FFLAGS
                0x0000000000000000        0x6 ./Core/core_riscv.o
 .text.__get_FRM
                0x0000000000000000        0x6 ./Core/core_riscv.o
 .text.__set_FRM
                0x0000000000000000        0x6 ./Core/core_riscv.o
 .text.__get_FCSR
                0x0000000000000000        0x6 ./Core/core_riscv.o
 .text.__set_FCSR
                0x0000000000000000        0x6 ./Core/core_riscv.o
 .text.__get_MSTATUS
                0x0000000000000000        0x6 ./Core/core_riscv.o
 .text.__set_MSTATUS
                0x0000000000000000        0x6 ./Core/core_riscv.o
 .text.__get_MISA
                0x0000000000000000        0x6 ./Core/core_riscv.o
 .text.__set_MISA
                0x0000000000000000        0x6 ./Core/core_riscv.o
 .text.__get_MTVEC
                0x0000000000000000        0x6 ./Core/core_riscv.o
 .text.__set_MTVEC
                0x0000000000000000        0x6 ./Core/core_riscv.o
 .text.__get_MSCRATCH
                0x0000000000000000        0x6 ./Core/core_riscv.o
 .text.__set_MSCRATCH
                0x0000000000000000        0x6 ./Core/core_riscv.o
 .text.__get_MEPC
                0x0000000000000000        0x6 ./Core/core_riscv.o
 .text.__set_MEPC
                0x0000000000000000        0x6 ./Core/core_riscv.o
 .text.__get_MCAUSE
                0x0000000000000000        0x6 ./Core/core_riscv.o
 .text.__set_MCAUSE
                0x0000000000000000        0x6 ./Core/core_riscv.o
 .text.__get_MTVAL
                0x0000000000000000        0x6 ./Core/core_riscv.o
 .text.__set_MTVAL
                0x0000000000000000        0x6 ./Core/core_riscv.o
 .text.__get_MVENDORID
                0x0000000000000000        0x6 ./Core/core_riscv.o
 .text.__get_MARCHID
                0x0000000000000000        0x6 ./Core/core_riscv.o
 .text.__get_MIMPID
                0x0000000000000000        0x6 ./Core/core_riscv.o
 .text.__get_MHARTID
                0x0000000000000000        0x6 ./Core/core_riscv.o
 .text.__get_SP
                0x0000000000000000        0x4 ./Core/core_riscv.o
 .debug_info    0x0000000000000000      0x46d ./Core/core_riscv.o
 .debug_abbrev  0x0000000000000000      0x10d ./Core/core_riscv.o
 .debug_aranges
                0x0000000000000000       0xe0 ./Core/core_riscv.o
 .debug_ranges  0x0000000000000000       0xd0 ./Core/core_riscv.o
 .debug_line    0x0000000000000000      0x52e ./Core/core_riscv.o
 .debug_str     0x0000000000000000      0x2db ./Core/core_riscv.o
 .comment       0x0000000000000000       0x34 ./Core/core_riscv.o
 .debug_frame   0x0000000000000000      0x1a0 ./Core/core_riscv.o
 .text          0x0000000000000000        0x0 ./CherryUSB/usb_dc_usbhs.o
 .data          0x0000000000000000        0x0 ./CherryUSB/usb_dc_usbhs.o
 .bss           0x0000000000000000        0x0 ./CherryUSB/usb_dc_usbhs.o
 .text.usb_dc_low_level_init
                0x0000000000000000        0x2 ./CherryUSB/usb_dc_usbhs.o
 .text.usb_dc_low_level_deinit
                0x0000000000000000        0x2 ./CherryUSB/usb_dc_usbhs.o
 .text.usb_dc_deinit
                0x0000000000000000        0x4 ./CherryUSB/usb_dc_usbhs.o
 .text.usbd_get_port_speed
                0x0000000000000000        0x4 ./CherryUSB/usb_dc_usbhs.o
 .text.usbd_ep_is_stalled
                0x0000000000000000        0x4 ./CherryUSB/usb_dc_usbhs.o
 .sbss.mps_over_flag
                0x0000000000000000        0x1 ./CherryUSB/usb_dc_usbhs.o
 .text          0x0000000000000000        0x0 ./CherryUSB/usbd_cdc.o
 .data          0x0000000000000000        0x0 ./CherryUSB/usbd_cdc.o
 .bss           0x0000000000000000        0x0 ./CherryUSB/usbd_cdc.o
 .text.usbd_cdc_acm_set_line_coding
                0x0000000000000000        0x2 ./CherryUSB/usbd_cdc.o
 .text.usbd_cdc_acm_get_line_coding
                0x0000000000000000       0x22 ./CherryUSB/usbd_cdc.o
 .data.parity_name
                0x0000000000000000       0x14 ./CherryUSB/usbd_cdc.o
 .data.stop_name
                0x0000000000000000        0xc ./CherryUSB/usbd_cdc.o
 .rodata.str1.4
                0x0000000000000000       0x1e ./CherryUSB/usbd_cdc.o
 .text          0x0000000000000000        0x0 ./CherryUSB/usbd_core.o
 .data          0x0000000000000000        0x0 ./CherryUSB/usbd_core.o
 .bss           0x0000000000000000        0x0 ./CherryUSB/usbd_core.o
 .text.usbd_msosv1_desc_register
                0x0000000000000000        0xa ./CherryUSB/usbd_core.o
 .text.usbd_deinitialize
                0x0000000000000000       0x22 ./CherryUSB/usbd_core.o
 .text.usbd_event_handler
                0x0000000000000000        0x2 ./CherryUSB/usbd_core.o
 .text.usbd_event_connect_handler
                0x0000000000000000       0x1a ./CherryUSB/usbd_core.o
 .text.usbd_event_disconnect_handler
                0x0000000000000000       0x1a ./CherryUSB/usbd_core.o
 .text.usbd_event_resume_handler
                0x0000000000000000       0x1a ./CherryUSB/usbd_core.o
 .text.usbd_event_suspend_handler
                0x0000000000000000       0x1a ./CherryUSB/usbd_core.o
 .text          0x0000000000000000        0x0 ./CherryRB/chry_ringbuffer.o
 .data          0x0000000000000000        0x0 ./CherryRB/chry_ringbuffer.o
 .bss           0x0000000000000000        0x0 ./CherryRB/chry_ringbuffer.o
 .text.chry_ringbuffer_reset
                0x0000000000000000        0xa ./CherryRB/chry_ringbuffer.o
 .text.chry_ringbuffer_get_size
                0x0000000000000000        0x6 ./CherryRB/chry_ringbuffer.o
 .text.chry_ringbuffer_check_full
                0x0000000000000000        0xe ./CherryRB/chry_ringbuffer.o
 .text.chry_ringbuffer_check_empty
                0x0000000000000000        0xe ./CherryRB/chry_ringbuffer.o
 .text.chry_ringbuffer_write_byte
                0x0000000000000000       0x26 ./CherryRB/chry_ringbuffer.o
 .text.chry_ringbuffer_overwrite_byte
                0x0000000000000000       0x26 ./CherryRB/chry_ringbuffer.o
 .text.chry_ringbuffer_peek_byte
                0x0000000000000000       0x1c ./CherryRB/chry_ringbuffer.o
 .text.chry_ringbuffer_read_byte
                0x0000000000000000       0x22 ./CherryRB/chry_ringbuffer.o
 .text.chry_ringbuffer_drop_byte
                0x0000000000000000       0x14 ./CherryRB/chry_ringbuffer.o
 .text.chry_ringbuffer_overwrite
                0x0000000000000000       0x80 ./CherryRB/chry_ringbuffer.o
 .text.chry_ringbuffer_peek
                0x0000000000000000       0x56 ./CherryRB/chry_ringbuffer.o
 .text.chry_ringbuffer_read
                0x0000000000000000       0x58 ./CherryRB/chry_ringbuffer.o
 .text.chry_ringbuffer_drop
                0x0000000000000000       0x14 ./CherryRB/chry_ringbuffer.o
 .text.chry_ringbuffer_linear_write_setup
                0x0000000000000000       0x28 ./CherryRB/chry_ringbuffer.o
 .text.chry_ringbuffer_linear_write_done
                0x0000000000000000       0x1a ./CherryRB/chry_ringbuffer.o
 .text          0x0000000000000000        0x0 ./CherryDAP/dap_main.o
 .data          0x0000000000000000        0x0 ./CherryDAP/dap_main.o
 .bss           0x0000000000000000        0x0 ./CherryDAP/dap_main.o
 .text.chry_dap_usb2uart_uart_config_callback
                0x0000000000000000        0x2 ./CherryDAP/dap_main.o
 .text.chry_dap_usb2uart_uart_send_complete
                0x0000000000000000       0x3e ./CherryDAP/dap_main.o
 .text.chry_dap_usb2uart_uart_send_bydma
                0x0000000000000000        0x2 ./CherryDAP/dap_main.o
 .bss.intf3     0x0000000000000000       0x1c ./CherryDAP/dap_main.o
 .data          0x0000000000000000        0x0 d:/mounriver_studio/toolchain/risc-v embedded gcc/bin/../lib/gcc/riscv-none-embed/8.2.0/rv32imacxw/ilp32\libgcc.a(save-restore.o)
 .bss           0x0000000000000000        0x0 d:/mounriver_studio/toolchain/risc-v embedded gcc/bin/../lib/gcc/riscv-none-embed/8.2.0/rv32imacxw/ilp32\libgcc.a(save-restore.o)
 .eh_frame      0x0000000000000000       0xf8 d:/mounriver_studio/toolchain/risc-v embedded gcc/bin/../lib/gcc/riscv-none-embed/8.2.0/rv32imacxw/ilp32\libgcc.a(save-restore.o)
 .text          0x0000000000000000        0x0 d:/mounriver_studio/toolchain/risc-v embedded gcc/bin/../lib/gcc/riscv-none-embed/8.2.0/../../../../riscv-none-embed/lib/rv32imacxw/ilp32\libg_nano.a(lib_a-memcmp.o)
 .data          0x0000000000000000        0x0 d:/mounriver_studio/toolchain/risc-v embedded gcc/bin/../lib/gcc/riscv-none-embed/8.2.0/../../../../riscv-none-embed/lib/rv32imacxw/ilp32\libg_nano.a(lib_a-memcmp.o)
 .bss           0x0000000000000000        0x0 d:/mounriver_studio/toolchain/risc-v embedded gcc/bin/../lib/gcc/riscv-none-embed/8.2.0/../../../../riscv-none-embed/lib/rv32imacxw/ilp32\libg_nano.a(lib_a-memcmp.o)
 .text          0x0000000000000000        0x0 d:/mounriver_studio/toolchain/risc-v embedded gcc/bin/../lib/gcc/riscv-none-embed/8.2.0/../../../../riscv-none-embed/lib/rv32imacxw/ilp32\libg_nano.a(lib_a-memcpy.o)
 .data          0x0000000000000000        0x0 d:/mounriver_studio/toolchain/risc-v embedded gcc/bin/../lib/gcc/riscv-none-embed/8.2.0/../../../../riscv-none-embed/lib/rv32imacxw/ilp32\libg_nano.a(lib_a-memcpy.o)
 .bss           0x0000000000000000        0x0 d:/mounriver_studio/toolchain/risc-v embedded gcc/bin/../lib/gcc/riscv-none-embed/8.2.0/../../../../riscv-none-embed/lib/rv32imacxw/ilp32\libg_nano.a(lib_a-memcpy.o)
 .data          0x0000000000000000        0x0 d:/mounriver_studio/toolchain/risc-v embedded gcc/bin/../lib/gcc/riscv-none-embed/8.2.0/../../../../riscv-none-embed/lib/rv32imacxw/ilp32\libg_nano.a(lib_a-memset.o)
 .bss           0x0000000000000000        0x0 d:/mounriver_studio/toolchain/risc-v embedded gcc/bin/../lib/gcc/riscv-none-embed/8.2.0/../../../../riscv-none-embed/lib/rv32imacxw/ilp32\libg_nano.a(lib_a-memset.o)
 .text          0x0000000000000000        0x0 d:/mounriver_studio/toolchain/risc-v embedded gcc/bin/../lib/gcc/riscv-none-embed/8.2.0/../../../../riscv-none-embed/lib/rv32imacxw/ilp32\libg_nano.a(lib_a-printf.o)
 .data          0x0000000000000000        0x0 d:/mounriver_studio/toolchain/risc-v embedded gcc/bin/../lib/gcc/riscv-none-embed/8.2.0/../../../../riscv-none-embed/lib/rv32imacxw/ilp32\libg_nano.a(lib_a-printf.o)
 .bss           0x0000000000000000        0x0 d:/mounriver_studio/toolchain/risc-v embedded gcc/bin/../lib/gcc/riscv-none-embed/8.2.0/../../../../riscv-none-embed/lib/rv32imacxw/ilp32\libg_nano.a(lib_a-printf.o)
 .text._printf_r
                0x0000000000000000       0x40 d:/mounriver_studio/toolchain/risc-v embedded gcc/bin/../lib/gcc/riscv-none-embed/8.2.0/../../../../riscv-none-embed/lib/rv32imacxw/ilp32\libg_nano.a(lib_a-printf.o)
 .text          0x0000000000000000        0x0 d:/mounriver_studio/toolchain/risc-v embedded gcc/bin/../lib/gcc/riscv-none-embed/8.2.0/../../../../riscv-none-embed/lib/rv32imacxw/ilp32\libg_nano.a(lib_a-puts.o)
 .data          0x0000000000000000        0x0 d:/mounriver_studio/toolchain/risc-v embedded gcc/bin/../lib/gcc/riscv-none-embed/8.2.0/../../../../riscv-none-embed/lib/rv32imacxw/ilp32\libg_nano.a(lib_a-puts.o)
 .bss           0x0000000000000000        0x0 d:/mounriver_studio/toolchain/risc-v embedded gcc/bin/../lib/gcc/riscv-none-embed/8.2.0/../../../../riscv-none-embed/lib/rv32imacxw/ilp32\libg_nano.a(lib_a-puts.o)
 .text          0x0000000000000000        0x0 d:/mounriver_studio/toolchain/risc-v embedded gcc/bin/../lib/gcc/riscv-none-embed/8.2.0/../../../../riscv-none-embed/lib/rv32imacxw/ilp32\libg_nano.a(lib_a-sprintf.o)
 .data          0x0000000000000000        0x0 d:/mounriver_studio/toolchain/risc-v embedded gcc/bin/../lib/gcc/riscv-none-embed/8.2.0/../../../../riscv-none-embed/lib/rv32imacxw/ilp32\libg_nano.a(lib_a-sprintf.o)
 .bss           0x0000000000000000        0x0 d:/mounriver_studio/toolchain/risc-v embedded gcc/bin/../lib/gcc/riscv-none-embed/8.2.0/../../../../riscv-none-embed/lib/rv32imacxw/ilp32\libg_nano.a(lib_a-sprintf.o)
 .text._sprintf_r
                0x0000000000000000       0x40 d:/mounriver_studio/toolchain/risc-v embedded gcc/bin/../lib/gcc/riscv-none-embed/8.2.0/../../../../riscv-none-embed/lib/rv32imacxw/ilp32\libg_nano.a(lib_a-sprintf.o)
 .text          0x0000000000000000        0x0 d:/mounriver_studio/toolchain/risc-v embedded gcc/bin/../lib/gcc/riscv-none-embed/8.2.0/../../../../riscv-none-embed/lib/rv32imacxw/ilp32\libg_nano.a(lib_a-strlen.o)
 .data          0x0000000000000000        0x0 d:/mounriver_studio/toolchain/risc-v embedded gcc/bin/../lib/gcc/riscv-none-embed/8.2.0/../../../../riscv-none-embed/lib/rv32imacxw/ilp32\libg_nano.a(lib_a-strlen.o)
 .bss           0x0000000000000000        0x0 d:/mounriver_studio/toolchain/risc-v embedded gcc/bin/../lib/gcc/riscv-none-embed/8.2.0/../../../../riscv-none-embed/lib/rv32imacxw/ilp32\libg_nano.a(lib_a-strlen.o)
 .text          0x0000000000000000        0x0 d:/mounriver_studio/toolchain/risc-v embedded gcc/bin/../lib/gcc/riscv-none-embed/8.2.0/../../../../riscv-none-embed/lib/rv32imacxw/ilp32\libg_nano.a(lib_a-wbuf.o)
 .data          0x0000000000000000        0x0 d:/mounriver_studio/toolchain/risc-v embedded gcc/bin/../lib/gcc/riscv-none-embed/8.2.0/../../../../riscv-none-embed/lib/rv32imacxw/ilp32\libg_nano.a(lib_a-wbuf.o)
 .bss           0x0000000000000000        0x0 d:/mounriver_studio/toolchain/risc-v embedded gcc/bin/../lib/gcc/riscv-none-embed/8.2.0/../../../../riscv-none-embed/lib/rv32imacxw/ilp32\libg_nano.a(lib_a-wbuf.o)
 .text.__swbuf  0x0000000000000000       0x16 d:/mounriver_studio/toolchain/risc-v embedded gcc/bin/../lib/gcc/riscv-none-embed/8.2.0/../../../../riscv-none-embed/lib/rv32imacxw/ilp32\libg_nano.a(lib_a-wbuf.o)
 .text          0x0000000000000000        0x0 d:/mounriver_studio/toolchain/risc-v embedded gcc/bin/../lib/gcc/riscv-none-embed/8.2.0/../../../../riscv-none-embed/lib/rv32imacxw/ilp32\libg_nano.a(lib_a-wsetup.o)
 .data          0x0000000000000000        0x0 d:/mounriver_studio/toolchain/risc-v embedded gcc/bin/../lib/gcc/riscv-none-embed/8.2.0/../../../../riscv-none-embed/lib/rv32imacxw/ilp32\libg_nano.a(lib_a-wsetup.o)
 .bss           0x0000000000000000        0x0 d:/mounriver_studio/toolchain/risc-v embedded gcc/bin/../lib/gcc/riscv-none-embed/8.2.0/../../../../riscv-none-embed/lib/rv32imacxw/ilp32\libg_nano.a(lib_a-wsetup.o)
 .text          0x0000000000000000        0x0 d:/mounriver_studio/toolchain/risc-v embedded gcc/bin/../lib/gcc/riscv-none-embed/8.2.0/../../../../riscv-none-embed/lib/rv32imacxw/ilp32\libg_nano.a(lib_a-fflush.o)
 .data          0x0000000000000000        0x0 d:/mounriver_studio/toolchain/risc-v embedded gcc/bin/../lib/gcc/riscv-none-embed/8.2.0/../../../../riscv-none-embed/lib/rv32imacxw/ilp32\libg_nano.a(lib_a-fflush.o)
 .bss           0x0000000000000000        0x0 d:/mounriver_studio/toolchain/risc-v embedded gcc/bin/../lib/gcc/riscv-none-embed/8.2.0/../../../../riscv-none-embed/lib/rv32imacxw/ilp32\libg_nano.a(lib_a-fflush.o)
 .text.fflush   0x0000000000000000       0x30 d:/mounriver_studio/toolchain/risc-v embedded gcc/bin/../lib/gcc/riscv-none-embed/8.2.0/../../../../riscv-none-embed/lib/rv32imacxw/ilp32\libg_nano.a(lib_a-fflush.o)
 .text          0x0000000000000000        0x0 d:/mounriver_studio/toolchain/risc-v embedded gcc/bin/../lib/gcc/riscv-none-embed/8.2.0/../../../../riscv-none-embed/lib/rv32imacxw/ilp32\libg_nano.a(lib_a-findfp.o)
 .data          0x0000000000000000        0x0 d:/mounriver_studio/toolchain/risc-v embedded gcc/bin/../lib/gcc/riscv-none-embed/8.2.0/../../../../riscv-none-embed/lib/rv32imacxw/ilp32\libg_nano.a(lib_a-findfp.o)
 .bss           0x0000000000000000        0x0 d:/mounriver_studio/toolchain/risc-v embedded gcc/bin/../lib/gcc/riscv-none-embed/8.2.0/../../../../riscv-none-embed/lib/rv32imacxw/ilp32\libg_nano.a(lib_a-findfp.o)
 .text.__fp_lock
                0x0000000000000000        0x4 d:/mounriver_studio/toolchain/risc-v embedded gcc/bin/../lib/gcc/riscv-none-embed/8.2.0/../../../../riscv-none-embed/lib/rv32imacxw/ilp32\libg_nano.a(lib_a-findfp.o)
 .text.__fp_unlock
                0x0000000000000000        0x4 d:/mounriver_studio/toolchain/risc-v embedded gcc/bin/../lib/gcc/riscv-none-embed/8.2.0/../../../../riscv-none-embed/lib/rv32imacxw/ilp32\libg_nano.a(lib_a-findfp.o)
 .text._cleanup
                0x0000000000000000       0x12 d:/mounriver_studio/toolchain/risc-v embedded gcc/bin/../lib/gcc/riscv-none-embed/8.2.0/../../../../riscv-none-embed/lib/rv32imacxw/ilp32\libg_nano.a(lib_a-findfp.o)
 .text.__sfp_lock_acquire
                0x0000000000000000        0x2 d:/mounriver_studio/toolchain/risc-v embedded gcc/bin/../lib/gcc/riscv-none-embed/8.2.0/../../../../riscv-none-embed/lib/rv32imacxw/ilp32\libg_nano.a(lib_a-findfp.o)
 .text.__sfp_lock_release
                0x0000000000000000        0x2 d:/mounriver_studio/toolchain/risc-v embedded gcc/bin/../lib/gcc/riscv-none-embed/8.2.0/../../../../riscv-none-embed/lib/rv32imacxw/ilp32\libg_nano.a(lib_a-findfp.o)
 .text.__sinit_lock_acquire
                0x0000000000000000        0x2 d:/mounriver_studio/toolchain/risc-v embedded gcc/bin/../lib/gcc/riscv-none-embed/8.2.0/../../../../riscv-none-embed/lib/rv32imacxw/ilp32\libg_nano.a(lib_a-findfp.o)
 .text.__sinit_lock_release
                0x0000000000000000        0x2 d:/mounriver_studio/toolchain/risc-v embedded gcc/bin/../lib/gcc/riscv-none-embed/8.2.0/../../../../riscv-none-embed/lib/rv32imacxw/ilp32\libg_nano.a(lib_a-findfp.o)
 .text.__fp_lock_all
                0x0000000000000000       0x1a d:/mounriver_studio/toolchain/risc-v embedded gcc/bin/../lib/gcc/riscv-none-embed/8.2.0/../../../../riscv-none-embed/lib/rv32imacxw/ilp32\libg_nano.a(lib_a-findfp.o)
 .text.__fp_unlock_all
                0x0000000000000000       0x1a d:/mounriver_studio/toolchain/risc-v embedded gcc/bin/../lib/gcc/riscv-none-embed/8.2.0/../../../../riscv-none-embed/lib/rv32imacxw/ilp32\libg_nano.a(lib_a-findfp.o)
 .text          0x0000000000000000        0x0 d:/mounriver_studio/toolchain/risc-v embedded gcc/bin/../lib/gcc/riscv-none-embed/8.2.0/../../../../riscv-none-embed/lib/rv32imacxw/ilp32\libg_nano.a(lib_a-fwalk.o)
 .data          0x0000000000000000        0x0 d:/mounriver_studio/toolchain/risc-v embedded gcc/bin/../lib/gcc/riscv-none-embed/8.2.0/../../../../riscv-none-embed/lib/rv32imacxw/ilp32\libg_nano.a(lib_a-fwalk.o)
 .bss           0x0000000000000000        0x0 d:/mounriver_studio/toolchain/risc-v embedded gcc/bin/../lib/gcc/riscv-none-embed/8.2.0/../../../../riscv-none-embed/lib/rv32imacxw/ilp32\libg_nano.a(lib_a-fwalk.o)
 .text._fwalk   0x0000000000000000       0x60 d:/mounriver_studio/toolchain/risc-v embedded gcc/bin/../lib/gcc/riscv-none-embed/8.2.0/../../../../riscv-none-embed/lib/rv32imacxw/ilp32\libg_nano.a(lib_a-fwalk.o)
 .text          0x0000000000000000        0x0 d:/mounriver_studio/toolchain/risc-v embedded gcc/bin/../lib/gcc/riscv-none-embed/8.2.0/../../../../riscv-none-embed/lib/rv32imacxw/ilp32\libg_nano.a(lib_a-impure.o)
 .data          0x0000000000000000        0x0 d:/mounriver_studio/toolchain/risc-v embedded gcc/bin/../lib/gcc/riscv-none-embed/8.2.0/../../../../riscv-none-embed/lib/rv32imacxw/ilp32\libg_nano.a(lib_a-impure.o)
 .bss           0x0000000000000000        0x0 d:/mounriver_studio/toolchain/risc-v embedded gcc/bin/../lib/gcc/riscv-none-embed/8.2.0/../../../../riscv-none-embed/lib/rv32imacxw/ilp32\libg_nano.a(lib_a-impure.o)
 .text          0x0000000000000000        0x0 d:/mounriver_studio/toolchain/risc-v embedded gcc/bin/../lib/gcc/riscv-none-embed/8.2.0/../../../../riscv-none-embed/lib/rv32imacxw/ilp32\libg_nano.a(lib_a-makebuf.o)
 .data          0x0000000000000000        0x0 d:/mounriver_studio/toolchain/risc-v embedded gcc/bin/../lib/gcc/riscv-none-embed/8.2.0/../../../../riscv-none-embed/lib/rv32imacxw/ilp32\libg_nano.a(lib_a-makebuf.o)
 .bss           0x0000000000000000        0x0 d:/mounriver_studio/toolchain/risc-v embedded gcc/bin/../lib/gcc/riscv-none-embed/8.2.0/../../../../riscv-none-embed/lib/rv32imacxw/ilp32\libg_nano.a(lib_a-makebuf.o)
 .text          0x0000000000000000        0x0 d:/mounriver_studio/toolchain/risc-v embedded gcc/bin/../lib/gcc/riscv-none-embed/8.2.0/../../../../riscv-none-embed/lib/rv32imacxw/ilp32\libg_nano.a(lib_a-nano-freer.o)
 .data          0x0000000000000000        0x0 d:/mounriver_studio/toolchain/risc-v embedded gcc/bin/../lib/gcc/riscv-none-embed/8.2.0/../../../../riscv-none-embed/lib/rv32imacxw/ilp32\libg_nano.a(lib_a-nano-freer.o)
 .bss           0x0000000000000000        0x0 d:/mounriver_studio/toolchain/risc-v embedded gcc/bin/../lib/gcc/riscv-none-embed/8.2.0/../../../../riscv-none-embed/lib/rv32imacxw/ilp32\libg_nano.a(lib_a-nano-freer.o)
 .text          0x0000000000000000        0x0 d:/mounriver_studio/toolchain/risc-v embedded gcc/bin/../lib/gcc/riscv-none-embed/8.2.0/../../../../riscv-none-embed/lib/rv32imacxw/ilp32\libg_nano.a(lib_a-nano-mallocr.o)
 .data          0x0000000000000000        0x0 d:/mounriver_studio/toolchain/risc-v embedded gcc/bin/../lib/gcc/riscv-none-embed/8.2.0/../../../../riscv-none-embed/lib/rv32imacxw/ilp32\libg_nano.a(lib_a-nano-mallocr.o)
 .bss           0x0000000000000000        0x0 d:/mounriver_studio/toolchain/risc-v embedded gcc/bin/../lib/gcc/riscv-none-embed/8.2.0/../../../../riscv-none-embed/lib/rv32imacxw/ilp32\libg_nano.a(lib_a-nano-mallocr.o)
 .text          0x0000000000000000        0x0 d:/mounriver_studio/toolchain/risc-v embedded gcc/bin/../lib/gcc/riscv-none-embed/8.2.0/../../../../riscv-none-embed/lib/rv32imacxw/ilp32\libg_nano.a(lib_a-nano-svfprintf.o)
 .data          0x0000000000000000        0x0 d:/mounriver_studio/toolchain/risc-v embedded gcc/bin/../lib/gcc/riscv-none-embed/8.2.0/../../../../riscv-none-embed/lib/rv32imacxw/ilp32\libg_nano.a(lib_a-nano-svfprintf.o)
 .bss           0x0000000000000000        0x0 d:/mounriver_studio/toolchain/risc-v embedded gcc/bin/../lib/gcc/riscv-none-embed/8.2.0/../../../../riscv-none-embed/lib/rv32imacxw/ilp32\libg_nano.a(lib_a-nano-svfprintf.o)
 .text.__ssprint_r
                0x0000000000000000      0x13e d:/mounriver_studio/toolchain/risc-v embedded gcc/bin/../lib/gcc/riscv-none-embed/8.2.0/../../../../riscv-none-embed/lib/rv32imacxw/ilp32\libg_nano.a(lib_a-nano-svfprintf.o)
 .text          0x0000000000000000        0x0 d:/mounriver_studio/toolchain/risc-v embedded gcc/bin/../lib/gcc/riscv-none-embed/8.2.0/../../../../riscv-none-embed/lib/rv32imacxw/ilp32\libg_nano.a(lib_a-nano-vfprintf.o)
 .data          0x0000000000000000        0x0 d:/mounriver_studio/toolchain/risc-v embedded gcc/bin/../lib/gcc/riscv-none-embed/8.2.0/../../../../riscv-none-embed/lib/rv32imacxw/ilp32\libg_nano.a(lib_a-nano-vfprintf.o)
 .bss           0x0000000000000000        0x0 d:/mounriver_studio/toolchain/risc-v embedded gcc/bin/../lib/gcc/riscv-none-embed/8.2.0/../../../../riscv-none-embed/lib/rv32imacxw/ilp32\libg_nano.a(lib_a-nano-vfprintf.o)
 .text.__sprint_r
                0x0000000000000000       0x2c d:/mounriver_studio/toolchain/risc-v embedded gcc/bin/../lib/gcc/riscv-none-embed/8.2.0/../../../../riscv-none-embed/lib/rv32imacxw/ilp32\libg_nano.a(lib_a-nano-vfprintf.o)
 .text.vfprintf
                0x0000000000000000       0x18 d:/mounriver_studio/toolchain/risc-v embedded gcc/bin/../lib/gcc/riscv-none-embed/8.2.0/../../../../riscv-none-embed/lib/rv32imacxw/ilp32\libg_nano.a(lib_a-nano-vfprintf.o)
 .text          0x0000000000000000        0x0 d:/mounriver_studio/toolchain/risc-v embedded gcc/bin/../lib/gcc/riscv-none-embed/8.2.0/../../../../riscv-none-embed/lib/rv32imacxw/ilp32\libg_nano.a(lib_a-nano-vfprintf_i.o)
 .data          0x0000000000000000        0x0 d:/mounriver_studio/toolchain/risc-v embedded gcc/bin/../lib/gcc/riscv-none-embed/8.2.0/../../../../riscv-none-embed/lib/rv32imacxw/ilp32\libg_nano.a(lib_a-nano-vfprintf_i.o)
 .bss           0x0000000000000000        0x0 d:/mounriver_studio/toolchain/risc-v embedded gcc/bin/../lib/gcc/riscv-none-embed/8.2.0/../../../../riscv-none-embed/lib/rv32imacxw/ilp32\libg_nano.a(lib_a-nano-vfprintf_i.o)
 .text          0x0000000000000000        0x0 d:/mounriver_studio/toolchain/risc-v embedded gcc/bin/../lib/gcc/riscv-none-embed/8.2.0/../../../../riscv-none-embed/lib/rv32imacxw/ilp32\libg_nano.a(lib_a-sbrkr.o)
 .data          0x0000000000000000        0x0 d:/mounriver_studio/toolchain/risc-v embedded gcc/bin/../lib/gcc/riscv-none-embed/8.2.0/../../../../riscv-none-embed/lib/rv32imacxw/ilp32\libg_nano.a(lib_a-sbrkr.o)
 .bss           0x0000000000000000        0x0 d:/mounriver_studio/toolchain/risc-v embedded gcc/bin/../lib/gcc/riscv-none-embed/8.2.0/../../../../riscv-none-embed/lib/rv32imacxw/ilp32\libg_nano.a(lib_a-sbrkr.o)
 .text          0x0000000000000000        0x0 d:/mounriver_studio/toolchain/risc-v embedded gcc/bin/../lib/gcc/riscv-none-embed/8.2.0/../../../../riscv-none-embed/lib/rv32imacxw/ilp32\libg_nano.a(lib_a-stdio.o)
 .data          0x0000000000000000        0x0 d:/mounriver_studio/toolchain/risc-v embedded gcc/bin/../lib/gcc/riscv-none-embed/8.2.0/../../../../riscv-none-embed/lib/rv32imacxw/ilp32\libg_nano.a(lib_a-stdio.o)
 .bss           0x0000000000000000        0x0 d:/mounriver_studio/toolchain/risc-v embedded gcc/bin/../lib/gcc/riscv-none-embed/8.2.0/../../../../riscv-none-embed/lib/rv32imacxw/ilp32\libg_nano.a(lib_a-stdio.o)
 .text.__seofread
                0x0000000000000000        0x4 d:/mounriver_studio/toolchain/risc-v embedded gcc/bin/../lib/gcc/riscv-none-embed/8.2.0/../../../../riscv-none-embed/lib/rv32imacxw/ilp32\libg_nano.a(lib_a-stdio.o)
 .text          0x0000000000000000        0x0 d:/mounriver_studio/toolchain/risc-v embedded gcc/bin/../lib/gcc/riscv-none-embed/8.2.0/../../../../riscv-none-embed/lib/rv32imacxw/ilp32\libg_nano.a(lib_a-writer.o)
 .data          0x0000000000000000        0x0 d:/mounriver_studio/toolchain/risc-v embedded gcc/bin/../lib/gcc/riscv-none-embed/8.2.0/../../../../riscv-none-embed/lib/rv32imacxw/ilp32\libg_nano.a(lib_a-writer.o)
 .bss           0x0000000000000000        0x0 d:/mounriver_studio/toolchain/risc-v embedded gcc/bin/../lib/gcc/riscv-none-embed/8.2.0/../../../../riscv-none-embed/lib/rv32imacxw/ilp32\libg_nano.a(lib_a-writer.o)
 .text          0x0000000000000000        0x0 d:/mounriver_studio/toolchain/risc-v embedded gcc/bin/../lib/gcc/riscv-none-embed/8.2.0/../../../../riscv-none-embed/lib/rv32imacxw/ilp32\libg_nano.a(lib_a-closer.o)
 .data          0x0000000000000000        0x0 d:/mounriver_studio/toolchain/risc-v embedded gcc/bin/../lib/gcc/riscv-none-embed/8.2.0/../../../../riscv-none-embed/lib/rv32imacxw/ilp32\libg_nano.a(lib_a-closer.o)
 .bss           0x0000000000000000        0x0 d:/mounriver_studio/toolchain/risc-v embedded gcc/bin/../lib/gcc/riscv-none-embed/8.2.0/../../../../riscv-none-embed/lib/rv32imacxw/ilp32\libg_nano.a(lib_a-closer.o)
 .text          0x0000000000000000        0x0 d:/mounriver_studio/toolchain/risc-v embedded gcc/bin/../lib/gcc/riscv-none-embed/8.2.0/../../../../riscv-none-embed/lib/rv32imacxw/ilp32\libg_nano.a(lib_a-fstatr.o)
 .data          0x0000000000000000        0x0 d:/mounriver_studio/toolchain/risc-v embedded gcc/bin/../lib/gcc/riscv-none-embed/8.2.0/../../../../riscv-none-embed/lib/rv32imacxw/ilp32\libg_nano.a(lib_a-fstatr.o)
 .bss           0x0000000000000000        0x0 d:/mounriver_studio/toolchain/risc-v embedded gcc/bin/../lib/gcc/riscv-none-embed/8.2.0/../../../../riscv-none-embed/lib/rv32imacxw/ilp32\libg_nano.a(lib_a-fstatr.o)
 .text          0x0000000000000000        0x0 d:/mounriver_studio/toolchain/risc-v embedded gcc/bin/../lib/gcc/riscv-none-embed/8.2.0/../../../../riscv-none-embed/lib/rv32imacxw/ilp32\libg_nano.a(lib_a-fvwrite.o)
 .data          0x0000000000000000        0x0 d:/mounriver_studio/toolchain/risc-v embedded gcc/bin/../lib/gcc/riscv-none-embed/8.2.0/../../../../riscv-none-embed/lib/rv32imacxw/ilp32\libg_nano.a(lib_a-fvwrite.o)
 .bss           0x0000000000000000        0x0 d:/mounriver_studio/toolchain/risc-v embedded gcc/bin/../lib/gcc/riscv-none-embed/8.2.0/../../../../riscv-none-embed/lib/rv32imacxw/ilp32\libg_nano.a(lib_a-fvwrite.o)
 .text.__sfvwrite_r
                0x0000000000000000      0x306 d:/mounriver_studio/toolchain/risc-v embedded gcc/bin/../lib/gcc/riscv-none-embed/8.2.0/../../../../riscv-none-embed/lib/rv32imacxw/ilp32\libg_nano.a(lib_a-fvwrite.o)
 .debug_frame   0x0000000000000000       0x60 d:/mounriver_studio/toolchain/risc-v embedded gcc/bin/../lib/gcc/riscv-none-embed/8.2.0/../../../../riscv-none-embed/lib/rv32imacxw/ilp32\libg_nano.a(lib_a-fvwrite.o)
 .text          0x0000000000000000        0x0 d:/mounriver_studio/toolchain/risc-v embedded gcc/bin/../lib/gcc/riscv-none-embed/8.2.0/../../../../riscv-none-embed/lib/rv32imacxw/ilp32\libg_nano.a(lib_a-isattyr.o)
 .data          0x0000000000000000        0x0 d:/mounriver_studio/toolchain/risc-v embedded gcc/bin/../lib/gcc/riscv-none-embed/8.2.0/../../../../riscv-none-embed/lib/rv32imacxw/ilp32\libg_nano.a(lib_a-isattyr.o)
 .bss           0x0000000000000000        0x0 d:/mounriver_studio/toolchain/risc-v embedded gcc/bin/../lib/gcc/riscv-none-embed/8.2.0/../../../../riscv-none-embed/lib/rv32imacxw/ilp32\libg_nano.a(lib_a-isattyr.o)
 .text          0x0000000000000000        0x0 d:/mounriver_studio/toolchain/risc-v embedded gcc/bin/../lib/gcc/riscv-none-embed/8.2.0/../../../../riscv-none-embed/lib/rv32imacxw/ilp32\libg_nano.a(lib_a-lseekr.o)
 .data          0x0000000000000000        0x0 d:/mounriver_studio/toolchain/risc-v embedded gcc/bin/../lib/gcc/riscv-none-embed/8.2.0/../../../../riscv-none-embed/lib/rv32imacxw/ilp32\libg_nano.a(lib_a-lseekr.o)
 .bss           0x0000000000000000        0x0 d:/mounriver_studio/toolchain/risc-v embedded gcc/bin/../lib/gcc/riscv-none-embed/8.2.0/../../../../riscv-none-embed/lib/rv32imacxw/ilp32\libg_nano.a(lib_a-lseekr.o)
 .text          0x0000000000000000        0x0 d:/mounriver_studio/toolchain/risc-v embedded gcc/bin/../lib/gcc/riscv-none-embed/8.2.0/../../../../riscv-none-embed/lib/rv32imacxw/ilp32\libg_nano.a(lib_a-memchr.o)
 .data          0x0000000000000000        0x0 d:/mounriver_studio/toolchain/risc-v embedded gcc/bin/../lib/gcc/riscv-none-embed/8.2.0/../../../../riscv-none-embed/lib/rv32imacxw/ilp32\libg_nano.a(lib_a-memchr.o)
 .bss           0x0000000000000000        0x0 d:/mounriver_studio/toolchain/risc-v embedded gcc/bin/../lib/gcc/riscv-none-embed/8.2.0/../../../../riscv-none-embed/lib/rv32imacxw/ilp32\libg_nano.a(lib_a-memchr.o)
 .text          0x0000000000000000        0x0 d:/mounriver_studio/toolchain/risc-v embedded gcc/bin/../lib/gcc/riscv-none-embed/8.2.0/../../../../riscv-none-embed/lib/rv32imacxw/ilp32\libg_nano.a(lib_a-memmove.o)
 .data          0x0000000000000000        0x0 d:/mounriver_studio/toolchain/risc-v embedded gcc/bin/../lib/gcc/riscv-none-embed/8.2.0/../../../../riscv-none-embed/lib/rv32imacxw/ilp32\libg_nano.a(lib_a-memmove.o)
 .bss           0x0000000000000000        0x0 d:/mounriver_studio/toolchain/risc-v embedded gcc/bin/../lib/gcc/riscv-none-embed/8.2.0/../../../../riscv-none-embed/lib/rv32imacxw/ilp32\libg_nano.a(lib_a-memmove.o)
 .text          0x0000000000000000        0x0 d:/mounriver_studio/toolchain/risc-v embedded gcc/bin/../lib/gcc/riscv-none-embed/8.2.0/../../../../riscv-none-embed/lib/rv32imacxw/ilp32\libg_nano.a(lib_a-mlock.o)
 .data          0x0000000000000000        0x0 d:/mounriver_studio/toolchain/risc-v embedded gcc/bin/../lib/gcc/riscv-none-embed/8.2.0/../../../../riscv-none-embed/lib/rv32imacxw/ilp32\libg_nano.a(lib_a-mlock.o)
 .bss           0x0000000000000000        0x0 d:/mounriver_studio/toolchain/risc-v embedded gcc/bin/../lib/gcc/riscv-none-embed/8.2.0/../../../../riscv-none-embed/lib/rv32imacxw/ilp32\libg_nano.a(lib_a-mlock.o)
 .text          0x0000000000000000        0x0 d:/mounriver_studio/toolchain/risc-v embedded gcc/bin/../lib/gcc/riscv-none-embed/8.2.0/../../../../riscv-none-embed/lib/rv32imacxw/ilp32\libg_nano.a(lib_a-nano-reallocr.o)
 .data          0x0000000000000000        0x0 d:/mounriver_studio/toolchain/risc-v embedded gcc/bin/../lib/gcc/riscv-none-embed/8.2.0/../../../../riscv-none-embed/lib/rv32imacxw/ilp32\libg_nano.a(lib_a-nano-reallocr.o)
 .bss           0x0000000000000000        0x0 d:/mounriver_studio/toolchain/risc-v embedded gcc/bin/../lib/gcc/riscv-none-embed/8.2.0/../../../../riscv-none-embed/lib/rv32imacxw/ilp32\libg_nano.a(lib_a-nano-reallocr.o)
 .text          0x0000000000000000        0x0 d:/mounriver_studio/toolchain/risc-v embedded gcc/bin/../lib/gcc/riscv-none-embed/8.2.0/../../../../riscv-none-embed/lib/rv32imacxw/ilp32\libg_nano.a(lib_a-readr.o)
 .data          0x0000000000000000        0x0 d:/mounriver_studio/toolchain/risc-v embedded gcc/bin/../lib/gcc/riscv-none-embed/8.2.0/../../../../riscv-none-embed/lib/rv32imacxw/ilp32\libg_nano.a(lib_a-readr.o)
 .bss           0x0000000000000000        0x0 d:/mounriver_studio/toolchain/risc-v embedded gcc/bin/../lib/gcc/riscv-none-embed/8.2.0/../../../../riscv-none-embed/lib/rv32imacxw/ilp32\libg_nano.a(lib_a-readr.o)
 .text          0x0000000000000000        0x0 d:/mounriver_studio/toolchain/risc-v embedded gcc/bin/../lib/gcc/riscv-none-embed/8.2.0/../../../../riscv-none-embed/lib/rv32imacxw/ilp32\libg_nano.a(lib_a-reent.o)
 .data          0x0000000000000000        0x0 d:/mounriver_studio/toolchain/risc-v embedded gcc/bin/../lib/gcc/riscv-none-embed/8.2.0/../../../../riscv-none-embed/lib/rv32imacxw/ilp32\libg_nano.a(lib_a-reent.o)
 .bss           0x0000000000000000        0x0 d:/mounriver_studio/toolchain/risc-v embedded gcc/bin/../lib/gcc/riscv-none-embed/8.2.0/../../../../riscv-none-embed/lib/rv32imacxw/ilp32\libg_nano.a(lib_a-reent.o)
 .text.cleanup_glue
                0x0000000000000000       0x2c d:/mounriver_studio/toolchain/risc-v embedded gcc/bin/../lib/gcc/riscv-none-embed/8.2.0/../../../../riscv-none-embed/lib/rv32imacxw/ilp32\libg_nano.a(lib_a-reent.o)
 .text._reclaim_reent
                0x0000000000000000      0x10c d:/mounriver_studio/toolchain/risc-v embedded gcc/bin/../lib/gcc/riscv-none-embed/8.2.0/../../../../riscv-none-embed/lib/rv32imacxw/ilp32\libg_nano.a(lib_a-reent.o)
 .text          0x0000000000000000        0x0 d:/mounriver_studio/toolchain/risc-v embedded gcc/bin/../lib/gcc/riscv-none-embed/8.2.0/../../../../riscv-none-embed/lib/rv32imacxw/ilp32\libg_nano.a(lib_a-nano-msizer.o)
 .data          0x0000000000000000        0x0 d:/mounriver_studio/toolchain/risc-v embedded gcc/bin/../lib/gcc/riscv-none-embed/8.2.0/../../../../riscv-none-embed/lib/rv32imacxw/ilp32\libg_nano.a(lib_a-nano-msizer.o)
 .bss           0x0000000000000000        0x0 d:/mounriver_studio/toolchain/risc-v embedded gcc/bin/../lib/gcc/riscv-none-embed/8.2.0/../../../../riscv-none-embed/lib/rv32imacxw/ilp32\libg_nano.a(lib_a-nano-msizer.o)
 .text          0x0000000000000000        0x0 d:/mounriver_studio/toolchain/risc-v embedded gcc/bin/../lib/gcc/riscv-none-embed/8.2.0/../../../../riscv-none-embed/lib/rv32imacxw/ilp32\libnosys.a(close.o)
 .data          0x0000000000000000        0x0 d:/mounriver_studio/toolchain/risc-v embedded gcc/bin/../lib/gcc/riscv-none-embed/8.2.0/../../../../riscv-none-embed/lib/rv32imacxw/ilp32\libnosys.a(close.o)
 .bss           0x0000000000000000        0x0 d:/mounriver_studio/toolchain/risc-v embedded gcc/bin/../lib/gcc/riscv-none-embed/8.2.0/../../../../riscv-none-embed/lib/rv32imacxw/ilp32\libnosys.a(close.o)
 .text          0x0000000000000000        0x0 d:/mounriver_studio/toolchain/risc-v embedded gcc/bin/../lib/gcc/riscv-none-embed/8.2.0/../../../../riscv-none-embed/lib/rv32imacxw/ilp32\libnosys.a(fstat.o)
 .data          0x0000000000000000        0x0 d:/mounriver_studio/toolchain/risc-v embedded gcc/bin/../lib/gcc/riscv-none-embed/8.2.0/../../../../riscv-none-embed/lib/rv32imacxw/ilp32\libnosys.a(fstat.o)
 .bss           0x0000000000000000        0x0 d:/mounriver_studio/toolchain/risc-v embedded gcc/bin/../lib/gcc/riscv-none-embed/8.2.0/../../../../riscv-none-embed/lib/rv32imacxw/ilp32\libnosys.a(fstat.o)
 .text          0x0000000000000000        0x0 d:/mounriver_studio/toolchain/risc-v embedded gcc/bin/../lib/gcc/riscv-none-embed/8.2.0/../../../../riscv-none-embed/lib/rv32imacxw/ilp32\libnosys.a(isatty.o)
 .data          0x0000000000000000        0x0 d:/mounriver_studio/toolchain/risc-v embedded gcc/bin/../lib/gcc/riscv-none-embed/8.2.0/../../../../riscv-none-embed/lib/rv32imacxw/ilp32\libnosys.a(isatty.o)
 .bss           0x0000000000000000        0x0 d:/mounriver_studio/toolchain/risc-v embedded gcc/bin/../lib/gcc/riscv-none-embed/8.2.0/../../../../riscv-none-embed/lib/rv32imacxw/ilp32\libnosys.a(isatty.o)
 .text          0x0000000000000000        0x0 d:/mounriver_studio/toolchain/risc-v embedded gcc/bin/../lib/gcc/riscv-none-embed/8.2.0/../../../../riscv-none-embed/lib/rv32imacxw/ilp32\libnosys.a(lseek.o)
 .data          0x0000000000000000        0x0 d:/mounriver_studio/toolchain/risc-v embedded gcc/bin/../lib/gcc/riscv-none-embed/8.2.0/../../../../riscv-none-embed/lib/rv32imacxw/ilp32\libnosys.a(lseek.o)
 .bss           0x0000000000000000        0x0 d:/mounriver_studio/toolchain/risc-v embedded gcc/bin/../lib/gcc/riscv-none-embed/8.2.0/../../../../riscv-none-embed/lib/rv32imacxw/ilp32\libnosys.a(lseek.o)
 .text          0x0000000000000000        0x0 d:/mounriver_studio/toolchain/risc-v embedded gcc/bin/../lib/gcc/riscv-none-embed/8.2.0/../../../../riscv-none-embed/lib/rv32imacxw/ilp32\libnosys.a(read.o)
 .data          0x0000000000000000        0x0 d:/mounriver_studio/toolchain/risc-v embedded gcc/bin/../lib/gcc/riscv-none-embed/8.2.0/../../../../riscv-none-embed/lib/rv32imacxw/ilp32\libnosys.a(read.o)
 .bss           0x0000000000000000        0x0 d:/mounriver_studio/toolchain/risc-v embedded gcc/bin/../lib/gcc/riscv-none-embed/8.2.0/../../../../riscv-none-embed/lib/rv32imacxw/ilp32\libnosys.a(read.o)

Memory Configuration

Name             Origin             Length             Attributes
FLASH            0x0000000000000000 0x0000000000020000 xr
RAM              0x0000000020000000 0x0000000000008000 xrw
*default*        0x0000000000000000 0xffffffffffffffff

Linker script and memory map

LOAD ./User/ch32v30x_it.o
LOAD ./User/main.o
LOAD ./User/system_ch32v30x.o
LOAD ./User/usb2uart.o
LOAD ./Startup/startup_ch32v30x_D8C.o
LOAD ./Peripheral/src/ch32v30x_adc.o
LOAD ./Peripheral/src/ch32v30x_bkp.o
LOAD ./Peripheral/src/ch32v30x_can.o
LOAD ./Peripheral/src/ch32v30x_crc.o
LOAD ./Peripheral/src/ch32v30x_dac.o
LOAD ./Peripheral/src/ch32v30x_dbgmcu.o
LOAD ./Peripheral/src/ch32v30x_dma.o
LOAD ./Peripheral/src/ch32v30x_dvp.o
LOAD ./Peripheral/src/ch32v30x_eth.o
LOAD ./Peripheral/src/ch32v30x_exti.o
LOAD ./Peripheral/src/ch32v30x_flash.o
LOAD ./Peripheral/src/ch32v30x_fsmc.o
LOAD ./Peripheral/src/ch32v30x_gpio.o
LOAD ./Peripheral/src/ch32v30x_i2c.o
LOAD ./Peripheral/src/ch32v30x_iwdg.o
LOAD ./Peripheral/src/ch32v30x_misc.o
LOAD ./Peripheral/src/ch32v30x_opa.o
LOAD ./Peripheral/src/ch32v30x_pwr.o
LOAD ./Peripheral/src/ch32v30x_rcc.o
LOAD ./Peripheral/src/ch32v30x_rng.o
LOAD ./Peripheral/src/ch32v30x_rtc.o
LOAD ./Peripheral/src/ch32v30x_sdio.o
LOAD ./Peripheral/src/ch32v30x_spi.o
LOAD ./Peripheral/src/ch32v30x_tim.o
LOAD ./Peripheral/src/ch32v30x_usart.o
LOAD ./Peripheral/src/ch32v30x_wwdg.o
LOAD ./Debug/debug.o
LOAD ./DAP/Source/DAP.o
LOAD ./DAP/Source/DAP_vendor.o
LOAD ./DAP/Source/JTAG_DP.o
LOAD ./DAP/Source/SWO.o
LOAD ./DAP/Source/SW_DP.o
LOAD ./DAP/Source/UART.o
LOAD ./DAP/swd_host.o
LOAD ./Core/core_riscv.o
LOAD ./CherryUSB/usb_dc_usbhs.o
LOAD ./CherryUSB/usbd_cdc.o
LOAD ./CherryUSB/usbd_core.o
LOAD ./CherryRB/chry_ringbuffer.o
LOAD ./CherryDAP/dap_main.o
LOAD d:/mounriver_studio/toolchain/risc-v embedded gcc/bin/../lib/gcc/riscv-none-embed/8.2.0/../../../../riscv-none-embed/lib/rv32imacxw/ilp32\libm.a
LOAD d:/mounriver_studio/toolchain/risc-v embedded gcc/bin/../lib/gcc/riscv-none-embed/8.2.0/rv32imacxw/ilp32\libgcc.a
LOAD d:/mounriver_studio/toolchain/risc-v embedded gcc/bin/../lib/gcc/riscv-none-embed/8.2.0/../../../../riscv-none-embed/lib/rv32imacxw/ilp32\libg_nano.a
LOAD d:/mounriver_studio/toolchain/risc-v embedded gcc/bin/../lib/gcc/riscv-none-embed/8.2.0/../../../../riscv-none-embed/lib/rv32imacxw/ilp32\libc_nano.a
LOAD d:/mounriver_studio/toolchain/risc-v embedded gcc/bin/../lib/gcc/riscv-none-embed/8.2.0/rv32imacxw/ilp32\libgcc.a
START GROUP
LOAD d:/mounriver_studio/toolchain/risc-v embedded gcc/bin/../lib/gcc/riscv-none-embed/8.2.0/rv32imacxw/ilp32\libgcc.a
LOAD d:/mounriver_studio/toolchain/risc-v embedded gcc/bin/../lib/gcc/riscv-none-embed/8.2.0/../../../../riscv-none-embed/lib/rv32imacxw/ilp32\libc_nano.a
LOAD d:/mounriver_studio/toolchain/risc-v embedded gcc/bin/../lib/gcc/riscv-none-embed/8.2.0/../../../../riscv-none-embed/lib/rv32imacxw/ilp32\libnosys.a
END GROUP
START GROUP
LOAD d:/mounriver_studio/toolchain/risc-v embedded gcc/bin/../lib/gcc/riscv-none-embed/8.2.0/rv32imacxw/ilp32\libgcc.a
LOAD d:/mounriver_studio/toolchain/risc-v embedded gcc/bin/../lib/gcc/riscv-none-embed/8.2.0/../../../../riscv-none-embed/lib/rv32imacxw/ilp32\libc_nano.a
LOAD d:/mounriver_studio/toolchain/risc-v embedded gcc/bin/../lib/gcc/riscv-none-embed/8.2.0/../../../../riscv-none-embed/lib/rv32imacxw/ilp32\libnosys.a
END GROUP
                0x0000000000000800                __stack_size = 0x800
                [!provide]                        PROVIDE (_stack_size = __stack_size)

.init           0x0000000000000000       0x38
                0x0000000000000000                _sinit = .
                0x0000000000000000                . = ALIGN (0x4)
 *(SORT_NONE(.init))
 .init          0x0000000000000000       0x38 ./Startup/startup_ch32v30x_D8C.o
                0x0000000000000000                _start
                0x0000000000000038                . = ALIGN (0x4)
                0x0000000000000038                _einit = .

.vector         0x0000000000000038      0x1c8
 *(.vector)
 .vector        0x0000000000000038      0x1a0 ./Startup/startup_ch32v30x_D8C.o
                0x0000000000000200                . = ALIGN (0x40)
 *fill*         0x00000000000001d8       0x28 

.text           0x0000000000000200     0x8a4c
                0x0000000000000200                . = ALIGN (0x4)
 *(.text)
 .text          0x0000000000000200       0x60 d:/mounriver_studio/toolchain/risc-v embedded gcc/bin/../lib/gcc/riscv-none-embed/8.2.0/rv32imacxw/ilp32\libgcc.a(save-restore.o)
                0x0000000000000200                __riscv_save_12
                0x0000000000000208                __riscv_save_9
                0x0000000000000208                __riscv_save_11
                0x0000000000000208                __riscv_save_10
                0x0000000000000208                __riscv_save_8
                0x0000000000000216                __riscv_save_4
                0x0000000000000216                __riscv_save_6
                0x0000000000000216                __riscv_save_5
                0x0000000000000216                __riscv_save_7
                0x0000000000000230                __riscv_save_3
                0x0000000000000230                __riscv_save_2
                0x0000000000000230                __riscv_save_1
                0x0000000000000230                __riscv_save_0
                0x000000000000023c                __riscv_restore_12
                0x0000000000000240                __riscv_restore_11
                0x0000000000000240                __riscv_restore_9
                0x0000000000000240                __riscv_restore_10
                0x0000000000000240                __riscv_restore_8
                0x000000000000024a                __riscv_restore_5
                0x000000000000024a                __riscv_restore_7
                0x000000000000024a                __riscv_restore_6
                0x000000000000024a                __riscv_restore_4
                0x0000000000000254                __riscv_restore_3
                0x0000000000000254                __riscv_restore_0
                0x0000000000000254                __riscv_restore_2
                0x0000000000000254                __riscv_restore_1
 .text          0x0000000000000260       0xa8 d:/mounriver_studio/toolchain/risc-v embedded gcc/bin/../lib/gcc/riscv-none-embed/8.2.0/../../../../riscv-none-embed/lib/rv32imacxw/ilp32\libg_nano.a(lib_a-memset.o)
                0x0000000000000260                memset
 *(.text.*)
 .text.NMI_Handler
                0x0000000000000308        0x4 ./User/ch32v30x_it.o
                0x0000000000000308                NMI_Handler
 .text.HardFault_Handler
                0x000000000000030c        0x2 ./User/ch32v30x_it.o
                0x000000000000030c                HardFault_Handler
 .text.usb_dc_low_level_init
                0x000000000000030e       0x3c ./User/main.o
                0x000000000000030e                usb_dc_low_level_init
 .text.check_iap_status
                0x000000000000034a       0x5e ./User/main.o
                0x000000000000034a                check_iap_status
 .text.startup.main
                0x00000000000003a8       0x38 ./User/main.o
                0x00000000000003a8                main
 .text.SystemInit
                0x00000000000003e0      0x10a ./User/system_ch32v30x.o
                0x00000000000003e0                SystemInit
 .text.SystemCoreClockUpdate
                0x00000000000004ea      0x116 ./User/system_ch32v30x.o
                0x00000000000004ea                SystemCoreClockUpdate
 .text.uartx_preinit
                0x0000000000000600      0x13e ./User/usb2uart.o
                0x0000000000000600                uartx_preinit
 .text.chry_dap_usb2uart_uart_config_callback
                0x000000000000073e       0x7c ./User/usb2uart.o
                0x000000000000073e                chry_dap_usb2uart_uart_config_callback
 .text.vector_handler
                0x00000000000007ba       0xbe ./Startup/startup_ch32v30x_D8C.o
                0x00000000000007be                Ecall_M_Mode_Handler
                0x00000000000007c0                Ecall_U_Mode_Handler
                0x00000000000007c2                Break_Point_Handler
                0x00000000000007c4                SysTick_Handler
                0x00000000000007c6                SW_Handler
                0x00000000000007c8                WWDG_IRQHandler
                0x00000000000007ca                PVD_IRQHandler
                0x00000000000007cc                TAMPER_IRQHandler
                0x00000000000007ce                RTC_IRQHandler
                0x00000000000007d0                FLASH_IRQHandler
                0x00000000000007d2                RCC_IRQHandler
                0x00000000000007d4                EXTI0_IRQHandler
                0x00000000000007d6                EXTI1_IRQHandler
                0x00000000000007d8                EXTI2_IRQHandler
                0x00000000000007da                EXTI3_IRQHandler
                0x00000000000007dc                EXTI4_IRQHandler
                0x00000000000007de                DMA1_Channel1_IRQHandler
                0x00000000000007e0                DMA1_Channel2_IRQHandler
                0x00000000000007e2                DMA1_Channel3_IRQHandler
                0x00000000000007e4                DMA1_Channel4_IRQHandler
                0x00000000000007e6                DMA1_Channel5_IRQHandler
                0x00000000000007e8                DMA1_Channel6_IRQHandler
                0x00000000000007ea                DMA1_Channel7_IRQHandler
                0x00000000000007ec                ADC1_2_IRQHandler
                0x00000000000007ee                USB_HP_CAN1_TX_IRQHandler
                0x00000000000007f0                USB_LP_CAN1_RX0_IRQHandler
                0x00000000000007f2                CAN1_RX1_IRQHandler
                0x00000000000007f4                CAN1_SCE_IRQHandler
                0x00000000000007f6                EXTI9_5_IRQHandler
                0x00000000000007f8                TIM1_BRK_IRQHandler
                0x00000000000007fa                TIM1_UP_IRQHandler
                0x00000000000007fc                TIM1_TRG_COM_IRQHandler
                0x00000000000007fe                TIM1_CC_IRQHandler
                0x0000000000000800                TIM2_IRQHandler
                0x0000000000000802                TIM3_IRQHandler
                0x0000000000000804                TIM4_IRQHandler
                0x0000000000000806                I2C1_EV_IRQHandler
                0x0000000000000808                I2C1_ER_IRQHandler
                0x000000000000080a                I2C2_EV_IRQHandler
                0x000000000000080c                I2C2_ER_IRQHandler
                0x000000000000080e                SPI1_IRQHandler
                0x0000000000000810                SPI2_IRQHandler
                0x0000000000000812                USART1_IRQHandler
                0x0000000000000814                USART2_IRQHandler
                0x0000000000000816                USART3_IRQHandler
                0x0000000000000818                EXTI15_10_IRQHandler
                0x000000000000081a                RTCAlarm_IRQHandler
                0x000000000000081c                USBWakeUp_IRQHandler
                0x000000000000081e                TIM8_BRK_IRQHandler
                0x0000000000000820                TIM8_UP_IRQHandler
                0x0000000000000822                TIM8_TRG_COM_IRQHandler
                0x0000000000000824                TIM8_CC_IRQHandler
                0x0000000000000826                RNG_IRQHandler
                0x0000000000000828                FSMC_IRQHandler
                0x000000000000082a                SDIO_IRQHandler
                0x000000000000082c                TIM5_IRQHandler
                0x000000000000082e                SPI3_IRQHandler
                0x0000000000000830                UART4_IRQHandler
                0x0000000000000832                UART5_IRQHandler
                0x0000000000000834                TIM6_IRQHandler
                0x0000000000000836                TIM7_IRQHandler
                0x0000000000000838                DMA2_Channel1_IRQHandler
                0x000000000000083a                DMA2_Channel2_IRQHandler
                0x000000000000083c                DMA2_Channel3_IRQHandler
                0x000000000000083e                DMA2_Channel4_IRQHandler
                0x0000000000000840                DMA2_Channel5_IRQHandler
                0x0000000000000842                ETH_IRQHandler
                0x0000000000000844                ETH_WKUP_IRQHandler
                0x0000000000000846                CAN2_TX_IRQHandler
                0x0000000000000848                CAN2_RX0_IRQHandler
                0x000000000000084a                CAN2_RX1_IRQHandler
                0x000000000000084c                CAN2_SCE_IRQHandler
                0x000000000000084e                OTG_FS_IRQHandler
                0x0000000000000850                USBHSWakeup_IRQHandler
                0x0000000000000854                DVP_IRQHandler
                0x0000000000000856                UART6_IRQHandler
                0x0000000000000858                UART7_IRQHandler
                0x000000000000085a                UART8_IRQHandler
                0x000000000000085c                TIM9_BRK_IRQHandler
                0x000000000000085e                TIM9_UP_IRQHandler
                0x0000000000000860                TIM9_TRG_COM_IRQHandler
                0x0000000000000862                TIM9_CC_IRQHandler
                0x0000000000000864                TIM10_BRK_IRQHandler
                0x0000000000000866                TIM10_UP_IRQHandler
                0x0000000000000868                TIM10_TRG_COM_IRQHandler
                0x000000000000086a                TIM10_CC_IRQHandler
                0x000000000000086c                DMA2_Channel6_IRQHandler
                0x000000000000086e                DMA2_Channel7_IRQHandler
                0x0000000000000870                DMA2_Channel8_IRQHandler
                0x0000000000000872                DMA2_Channel9_IRQHandler
                0x0000000000000874                DMA2_Channel10_IRQHandler
                0x0000000000000876                DMA2_Channel11_IRQHandler
 .text.handle_reset
                0x0000000000000878       0x92 ./Startup/startup_ch32v30x_D8C.o
                0x0000000000000878                handle_reset
 .text.DMA_DeInit
                0x000000000000090a      0x1b0 ./Peripheral/src/ch32v30x_dma.o
                0x000000000000090a                DMA_DeInit
 .text.DMA_Init
                0x0000000000000aba       0x40 ./Peripheral/src/ch32v30x_dma.o
                0x0000000000000aba                DMA_Init
 .text.DMA_Cmd  0x0000000000000afa       0x16 ./Peripheral/src/ch32v30x_dma.o
                0x0000000000000afa                DMA_Cmd
 .text.DMA_SetCurrDataCounter
                0x0000000000000b10        0x4 ./Peripheral/src/ch32v30x_dma.o
                0x0000000000000b10                DMA_SetCurrDataCounter
 .text.DMA_GetCurrDataCounter
                0x0000000000000b14        0x8 ./Peripheral/src/ch32v30x_dma.o
                0x0000000000000b14                DMA_GetCurrDataCounter
 .text.GPIO_Init
                0x0000000000000b1c      0x480 ./Peripheral/src/ch32v30x_gpio.o
                0x0000000000000b1c                GPIO_Init
 .text.GPIO_ReadInputDataBit
                0x0000000000000f9c        0xa ./Peripheral/src/ch32v30x_gpio.o
                0x0000000000000f9c                GPIO_ReadInputDataBit
 .text.GPIO_SetBits
                0x0000000000000fa6        0x4 ./Peripheral/src/ch32v30x_gpio.o
                0x0000000000000fa6                GPIO_SetBits
 .text.NVIC_PriorityGroupConfig
                0x0000000000000faa        0xa ./Peripheral/src/ch32v30x_misc.o
                0x0000000000000faa                NVIC_PriorityGroupConfig
 .text.RCC_GetClocksFreq
                0x0000000000000fb4      0x198 ./Peripheral/src/ch32v30x_rcc.o
                0x0000000000000fb4                RCC_GetClocksFreq
 .text.RCC_AHBPeriphClockCmd
                0x000000000000114c       0x1e ./Peripheral/src/ch32v30x_rcc.o
                0x000000000000114c                RCC_AHBPeriphClockCmd
 .text.RCC_APB2PeriphClockCmd
                0x000000000000116a       0x1e ./Peripheral/src/ch32v30x_rcc.o
                0x000000000000116a                RCC_APB2PeriphClockCmd
 .text.RCC_APB1PeriphClockCmd
                0x0000000000001188       0x1e ./Peripheral/src/ch32v30x_rcc.o
                0x0000000000001188                RCC_APB1PeriphClockCmd
 .text.RCC_USBHSConfig
                0x00000000000011a6       0x1a ./Peripheral/src/ch32v30x_rcc.o
                0x00000000000011a6                RCC_USBHSConfig
 .text.RCC_USBHSPLLCLKConfig
                0x00000000000011c0       0x1a ./Peripheral/src/ch32v30x_rcc.o
                0x00000000000011c0                RCC_USBHSPLLCLKConfig
 .text.RCC_USBHSPLLCKREFCLKConfig
                0x00000000000011da       0x1a ./Peripheral/src/ch32v30x_rcc.o
                0x00000000000011da                RCC_USBHSPLLCKREFCLKConfig
 .text.RCC_USBHSPHYPLLALIVEcmd
                0x00000000000011f4       0x24 ./Peripheral/src/ch32v30x_rcc.o
                0x00000000000011f4                RCC_USBHSPHYPLLALIVEcmd
 .text.RCC_USBCLK48MConfig
                0x0000000000001218       0x16 ./Peripheral/src/ch32v30x_rcc.o
                0x0000000000001218                RCC_USBCLK48MConfig
 .text.USART_Init
                0x000000000000122e       0xe0 ./Peripheral/src/ch32v30x_usart.o
                0x000000000000122e                USART_Init
 .text.USART_Cmd
                0x000000000000130e       0x18 ./Peripheral/src/ch32v30x_usart.o
                0x000000000000130e                USART_Cmd
 .text.USART_DMACmd
                0x0000000000001326       0x14 ./Peripheral/src/ch32v30x_usart.o
                0x0000000000001326                USART_DMACmd
 .text.USART_SendData
                0x000000000000133a        0x8 ./Peripheral/src/ch32v30x_usart.o
                0x000000000000133a                USART_SendData
 .text.USART_GetFlagStatus
                0x0000000000001342        0xa ./Peripheral/src/ch32v30x_usart.o
                0x0000000000001342                USART_GetFlagStatus
 .text.USART_ClearFlag
                0x000000000000134c        0xc ./Peripheral/src/ch32v30x_usart.o
                0x000000000000134c                USART_ClearFlag
 .text.Delay_Init
                0x0000000000001358       0x32 ./Debug/debug.o
                0x0000000000001358                Delay_Init
 .text._write   0x000000000000138a        0x4 ./Debug/debug.o
                0x000000000000138a                _write
 .text._sbrk    0x000000000000138e       0x2c ./Debug/debug.o
                0x000000000000138e                _sbrk
 .text.DAP_ProcessCommand
                0x00000000000013ba     0x17d6 ./DAP/Source/DAP.o
                0x00000000000013ba                DAP_ProcessCommand
 .text.DAP_ExecuteCommand
                0x0000000000002b90       0x5c ./DAP/Source/DAP.o
                0x0000000000002b90                DAP_ExecuteCommand
 .text.DAP_Setup
                0x0000000000002bec       0x68 ./DAP/Source/DAP.o
                0x0000000000002bec                DAP_Setup
 .text.DAP_ProcessVendorCommand
                0x0000000000002c54        0xa ./DAP/Source/DAP_vendor.o
                0x0000000000002c54                DAP_ProcessVendorCommand
 .text.JTAG_Sequence
                0x0000000000002c5e       0xd2 ./DAP/Source/JTAG_DP.o
                0x0000000000002c5e                JTAG_Sequence
 .text.JTAG_ReadIDCode
                0x0000000000002d30      0x19a ./DAP/Source/JTAG_DP.o
                0x0000000000002d30                JTAG_ReadIDCode
 .text.JTAG_WriteAbort
                0x0000000000002eca      0x2cc ./DAP/Source/JTAG_DP.o
                0x0000000000002eca                JTAG_WriteAbort
 .text.JTAG_IR  0x0000000000003196      0x3da ./DAP/Source/JTAG_DP.o
                0x0000000000003196                JTAG_IR
 .text.JTAG_Transfer
                0x0000000000003570      0x7b4 ./DAP/Source/JTAG_DP.o
                0x0000000000003570                JTAG_Transfer
 .text.SWJ_Sequence
                0x0000000000003d24       0x6a ./DAP/Source/SW_DP.o
                0x0000000000003d24                SWJ_Sequence
 .text.SWD_Sequence
                0x0000000000003d8e       0xde ./DAP/Source/SW_DP.o
                0x0000000000003d8e                SWD_Sequence
 .text.SWD_Transfer
                0x0000000000003e6c      0x9ae ./DAP/Source/SW_DP.o
                0x0000000000003e6c                SWD_Transfer
 .text.swd_write_data
                0x000000000000481a       0x80 ./DAP/swd_host.o
 .text.swd_write_ap.constprop.9
                0x000000000000489a       0xaa ./DAP/swd_host.o
 .text.target_nvic_system_reset
                0x0000000000004944       0x2e ./DAP/swd_host.o
                0x0000000000004944                target_nvic_system_reset
 .text.usb_dc_init
                0x0000000000004972       0x54 ./CherryUSB/usb_dc_usbhs.o
                0x0000000000004972                usb_dc_init
 .text.usbd_set_address
                0x00000000000049c6       0x18 ./CherryUSB/usb_dc_usbhs.o
                0x00000000000049c6                usbd_set_address
 .text.usbd_ep_open
                0x00000000000049de       0xcc ./CherryUSB/usb_dc_usbhs.o
                0x00000000000049de                usbd_ep_open
 .text.usbd_ep_close
                0x0000000000004aaa        0x4 ./CherryUSB/usb_dc_usbhs.o
                0x0000000000004aaa                usbd_ep_close
 .text.usbd_ep_set_stall
                0x0000000000004aae       0x5e ./CherryUSB/usb_dc_usbhs.o
                0x0000000000004aae                usbd_ep_set_stall
 .text.usbd_ep_clear_stall
                0x0000000000004b0c       0x2e ./CherryUSB/usb_dc_usbhs.o
                0x0000000000004b0c                usbd_ep_clear_stall
 .text.usbd_ep_start_write
                0x0000000000004b3a       0xfc ./CherryUSB/usb_dc_usbhs.o
                0x0000000000004b3a                usbd_ep_start_write
 .text.usbd_ep_start_read
                0x0000000000004c36       0xc6 ./CherryUSB/usb_dc_usbhs.o
                0x0000000000004c36                usbd_ep_start_read
 .text.USBHS_IRQHandler
                0x0000000000004cfc      0x3da ./CherryUSB/usb_dc_usbhs.o
                0x0000000000004cfc                USBHS_IRQHandler
 .text.usbd_cdc_acm_init_intf
                0x00000000000050d6       0x18 ./CherryUSB/usbd_cdc.o
                0x00000000000050d6                usbd_cdc_acm_init_intf
 .text.usbd_cdc_acm_set_dtr
                0x00000000000050ee        0x2 ./CherryUSB/usbd_cdc.o
                0x00000000000050ee                usbd_cdc_acm_set_dtr
 .text.usbd_cdc_acm_set_rts
                0x00000000000050f0        0x2 ./CherryUSB/usbd_cdc.o
                0x00000000000050f0                usbd_cdc_acm_set_rts
 .text.usbd_cdc_acm_send_break
                0x00000000000050f2        0x2 ./CherryUSB/usbd_cdc.o
                0x00000000000050f2                usbd_cdc_acm_send_break
 .text.cdc_acm_class_interface_request_handler
                0x00000000000050f4       0xfc ./CherryUSB/usbd_cdc.o
 .text.usbd_event_ep0_in_complete_handler
                0x00000000000051f0       0x54 ./CherryUSB/usbd_core.o
                0x00000000000051f0                usbd_event_ep0_in_complete_handler
 .text.usbd_event_ep_in_complete_handler
                0x0000000000005244       0x26 ./CherryUSB/usbd_core.o
                0x0000000000005244                usbd_event_ep_in_complete_handler
 .text.usbd_event_ep_out_complete_handler
                0x000000000000526a       0x26 ./CherryUSB/usbd_core.o
                0x000000000000526a                usbd_event_ep_out_complete_handler
 .text.usbd_desc_register
                0x0000000000005290       0x3e ./CherryUSB/usbd_core.o
                0x0000000000005290                usbd_desc_register
 .text.usbd_msosv2_desc_register
                0x00000000000052ce        0x6 ./CherryUSB/usbd_core.o
                0x00000000000052ce                usbd_msosv2_desc_register
 .text.usbd_bos_desc_register
                0x00000000000052d4        0x6 ./CherryUSB/usbd_core.o
                0x00000000000052d4                usbd_bos_desc_register
 .text.usbd_add_interface
                0x00000000000052da       0x1c ./CherryUSB/usbd_core.o
                0x00000000000052da                usbd_add_interface
 .text.usbd_add_endpoint
                0x00000000000052f6       0x46 ./CherryUSB/usbd_core.o
                0x00000000000052f6                usbd_add_endpoint
 .text.usb_device_is_configured
                0x000000000000533c        0xa ./CherryUSB/usbd_core.o
                0x000000000000533c                usb_device_is_configured
 .text.usbd_initialize
                0x0000000000005346        0xc ./CherryUSB/usbd_core.o
                0x0000000000005346                usbd_initialize
 .text.usbd_event_reset_handler
                0x0000000000005352       0x66 ./CherryUSB/usbd_core.o
                0x0000000000005352                usbd_event_reset_handler
 .text.usbd_event_ep0_out_complete_handler
                0x00000000000053b8      0x946 ./CherryUSB/usbd_core.o
                0x00000000000053b8                usbd_event_ep0_out_complete_handler
 .text.usbd_event_ep0_setup_complete_handler
                0x0000000000005cfe      0xa80 ./CherryUSB/usbd_core.o
                0x0000000000005cfe                usbd_event_ep0_setup_complete_handler
 .text.chry_ringbuffer_init
                0x000000000000677e       0x26 ./CherryRB/chry_ringbuffer.o
                0x000000000000677e                chry_ringbuffer_init
 .text.chry_ringbuffer_reset_read
                0x00000000000067a4        0x6 ./CherryRB/chry_ringbuffer.o
                0x00000000000067a4                chry_ringbuffer_reset_read
 .text.chry_ringbuffer_get_used
                0x00000000000067aa        0xa ./CherryRB/chry_ringbuffer.o
                0x00000000000067aa                chry_ringbuffer_get_used
 .text.chry_ringbuffer_get_free
                0x00000000000067b4       0x10 ./CherryRB/chry_ringbuffer.o
                0x00000000000067b4                chry_ringbuffer_get_free
 .text.chry_ringbuffer_write
                0x00000000000067c4       0x54 ./CherryRB/chry_ringbuffer.o
                0x00000000000067c4                chry_ringbuffer_write
 .text.chry_ringbuffer_linear_read_setup
                0x0000000000006818       0x46 ./CherryRB/chry_ringbuffer.o
                0x0000000000006818                chry_ringbuffer_linear_read_setup
 .text.chry_ringbuffer_linear_read_done
                0x000000000000685e       0x14 ./CherryRB/chry_ringbuffer.o
                0x000000000000685e                chry_ringbuffer_linear_read_done
 .text.dap_out_callback
                0x0000000000006872       0x96 ./CherryDAP/dap_main.o
                0x0000000000006872                dap_out_callback
 .text.dap_in_callback
                0x0000000000006908       0x82 ./CherryDAP/dap_main.o
                0x0000000000006908                dap_in_callback
 .text.usbd_cdc_acm_bulk_out
                0x000000000000698a       0x46 ./CherryDAP/dap_main.o
                0x000000000000698a                usbd_cdc_acm_bulk_out
 .text.usbd_cdc_acm_bulk_in
                0x00000000000069d0       0x38 ./CherryDAP/dap_main.o
                0x00000000000069d0                usbd_cdc_acm_bulk_in
 .text.usbd_event_handler
                0x0000000000006a08       0x60 ./CherryDAP/dap_main.o
                0x0000000000006a08                usbd_event_handler
 .text.chry_dap_init
                0x0000000000006a68       0xf4 ./CherryDAP/dap_main.o
                0x0000000000006a68                chry_dap_init
 .text.chry_dap_handle
                0x0000000000006b5c      0x1d4 ./CherryDAP/dap_main.o
                0x0000000000006b5c                chry_dap_handle
 .text.usbd_cdc_acm_set_line_coding
                0x0000000000006d30       0x50 ./CherryDAP/dap_main.o
                0x0000000000006d30                usbd_cdc_acm_set_line_coding
 .text.usbd_cdc_acm_get_line_coding
                0x0000000000006d80       0x2e ./CherryDAP/dap_main.o
                0x0000000000006d80                usbd_cdc_acm_get_line_coding
 .text.chry_dap_usb2uart_handle
                0x0000000000006dae      0x196 ./CherryDAP/dap_main.o
                0x0000000000006dae                chry_dap_usb2uart_handle
 .text.memcmp   0x0000000000006f44       0x24 d:/mounriver_studio/toolchain/risc-v embedded gcc/bin/../lib/gcc/riscv-none-embed/8.2.0/../../../../riscv-none-embed/lib/rv32imacxw/ilp32\libg_nano.a(lib_a-memcmp.o)
                0x0000000000006f44                memcmp
 .text.memcpy   0x0000000000006f68       0xb2 d:/mounriver_studio/toolchain/risc-v embedded gcc/bin/../lib/gcc/riscv-none-embed/8.2.0/../../../../riscv-none-embed/lib/rv32imacxw/ilp32\libg_nano.a(lib_a-memcpy.o)
                0x0000000000006f68                memcpy
 .text.printf   0x000000000000701a       0x40 d:/mounriver_studio/toolchain/risc-v embedded gcc/bin/../lib/gcc/riscv-none-embed/8.2.0/../../../../riscv-none-embed/lib/rv32imacxw/ilp32\libg_nano.a(lib_a-printf.o)
                0x000000000000701a                iprintf
                0x000000000000701a                printf
 .text._puts_r  0x000000000000705a       0xd4 d:/mounriver_studio/toolchain/risc-v embedded gcc/bin/../lib/gcc/riscv-none-embed/8.2.0/../../../../riscv-none-embed/lib/rv32imacxw/ilp32\libg_nano.a(lib_a-puts.o)
                0x000000000000705a                _puts_r
 .text.puts     0x000000000000712e        0xc d:/mounriver_studio/toolchain/risc-v embedded gcc/bin/../lib/gcc/riscv-none-embed/8.2.0/../../../../riscv-none-embed/lib/rv32imacxw/ilp32\libg_nano.a(lib_a-puts.o)
                0x000000000000712e                puts
 .text.sprintf  0x000000000000713a       0x46 d:/mounriver_studio/toolchain/risc-v embedded gcc/bin/../lib/gcc/riscv-none-embed/8.2.0/../../../../riscv-none-embed/lib/rv32imacxw/ilp32\libg_nano.a(lib_a-sprintf.o)
                0x000000000000713a                siprintf
                0x000000000000713a                sprintf
 .text.strlen   0x0000000000007180       0x12 d:/mounriver_studio/toolchain/risc-v embedded gcc/bin/../lib/gcc/riscv-none-embed/8.2.0/../../../../riscv-none-embed/lib/rv32imacxw/ilp32\libg_nano.a(lib_a-strlen.o)
                0x0000000000007180                strlen
 .text.__swbuf_r
                0x0000000000007192       0xbc d:/mounriver_studio/toolchain/risc-v embedded gcc/bin/../lib/gcc/riscv-none-embed/8.2.0/../../../../riscv-none-embed/lib/rv32imacxw/ilp32\libg_nano.a(lib_a-wbuf.o)
                0x0000000000007192                __swbuf_r
 .text.__swsetup_r
                0x000000000000724e       0xfc d:/mounriver_studio/toolchain/risc-v embedded gcc/bin/../lib/gcc/riscv-none-embed/8.2.0/../../../../riscv-none-embed/lib/rv32imacxw/ilp32\libg_nano.a(lib_a-wsetup.o)
                0x000000000000724e                __swsetup_r
 .text.__sflush_r
                0x000000000000734a      0x130 d:/mounriver_studio/toolchain/risc-v embedded gcc/bin/../lib/gcc/riscv-none-embed/8.2.0/../../../../riscv-none-embed/lib/rv32imacxw/ilp32\libg_nano.a(lib_a-fflush.o)
                0x000000000000734a                __sflush_r
 .text._fflush_r
                0x000000000000747a       0x66 d:/mounriver_studio/toolchain/risc-v embedded gcc/bin/../lib/gcc/riscv-none-embed/8.2.0/../../../../riscv-none-embed/lib/rv32imacxw/ilp32\libg_nano.a(lib_a-fflush.o)
                0x000000000000747a                _fflush_r
 .text.std      0x00000000000074e0       0x66 d:/mounriver_studio/toolchain/risc-v embedded gcc/bin/../lib/gcc/riscv-none-embed/8.2.0/../../../../riscv-none-embed/lib/rv32imacxw/ilp32\libg_nano.a(lib_a-findfp.o)
 .text._cleanup_r
                0x0000000000007546        0xa d:/mounriver_studio/toolchain/risc-v embedded gcc/bin/../lib/gcc/riscv-none-embed/8.2.0/../../../../riscv-none-embed/lib/rv32imacxw/ilp32\libg_nano.a(lib_a-findfp.o)
                0x0000000000007546                _cleanup_r
 .text.__sfmoreglue
                0x0000000000007550       0x46 d:/mounriver_studio/toolchain/risc-v embedded gcc/bin/../lib/gcc/riscv-none-embed/8.2.0/../../../../riscv-none-embed/lib/rv32imacxw/ilp32\libg_nano.a(lib_a-findfp.o)
                0x0000000000007550                __sfmoreglue
 .text.__sinit  0x0000000000007596       0x6c d:/mounriver_studio/toolchain/risc-v embedded gcc/bin/../lib/gcc/riscv-none-embed/8.2.0/../../../../riscv-none-embed/lib/rv32imacxw/ilp32\libg_nano.a(lib_a-findfp.o)
                0x0000000000007596                __sinit
 .text.__sfp    0x0000000000007602       0xa0 d:/mounriver_studio/toolchain/risc-v embedded gcc/bin/../lib/gcc/riscv-none-embed/8.2.0/../../../../riscv-none-embed/lib/rv32imacxw/ilp32\libg_nano.a(lib_a-findfp.o)
                0x0000000000007602                __sfp
 .text._fwalk_reent
                0x00000000000076a2       0x6a d:/mounriver_studio/toolchain/risc-v embedded gcc/bin/../lib/gcc/riscv-none-embed/8.2.0/../../../../riscv-none-embed/lib/rv32imacxw/ilp32\libg_nano.a(lib_a-fwalk.o)
                0x00000000000076a2                _fwalk_reent
 .text.__swhatbuf_r
                0x000000000000770c       0x58 d:/mounriver_studio/toolchain/risc-v embedded gcc/bin/../lib/gcc/riscv-none-embed/8.2.0/../../../../riscv-none-embed/lib/rv32imacxw/ilp32\libg_nano.a(lib_a-makebuf.o)
                0x000000000000770c                __swhatbuf_r
 .text.__smakebuf_r
                0x0000000000007764       0x92 d:/mounriver_studio/toolchain/risc-v embedded gcc/bin/../lib/gcc/riscv-none-embed/8.2.0/../../../../riscv-none-embed/lib/rv32imacxw/ilp32\libg_nano.a(lib_a-makebuf.o)
                0x0000000000007764                __smakebuf_r
 .text._free_r  0x00000000000077f6       0xb0 d:/mounriver_studio/toolchain/risc-v embedded gcc/bin/../lib/gcc/riscv-none-embed/8.2.0/../../../../riscv-none-embed/lib/rv32imacxw/ilp32\libg_nano.a(lib_a-nano-freer.o)
                0x00000000000077f6                _free_r
 .text._malloc_r
                0x00000000000078a6       0xea d:/mounriver_studio/toolchain/risc-v embedded gcc/bin/../lib/gcc/riscv-none-embed/8.2.0/../../../../riscv-none-embed/lib/rv32imacxw/ilp32\libg_nano.a(lib_a-nano-mallocr.o)
                0x00000000000078a6                _malloc_r
 .text.__ssputs_r
                0x0000000000007990       0xe4 d:/mounriver_studio/toolchain/risc-v embedded gcc/bin/../lib/gcc/riscv-none-embed/8.2.0/../../../../riscv-none-embed/lib/rv32imacxw/ilp32\libg_nano.a(lib_a-nano-svfprintf.o)
                0x0000000000007990                __ssputs_r
 .text._svfprintf_r
                0x0000000000007a74      0x26a d:/mounriver_studio/toolchain/risc-v embedded gcc/bin/../lib/gcc/riscv-none-embed/8.2.0/../../../../riscv-none-embed/lib/rv32imacxw/ilp32\libg_nano.a(lib_a-nano-svfprintf.o)
                0x0000000000007a74                _svfiprintf_r
                0x0000000000007a74                _svfprintf_r
 .text.__sfputc_r
                0x0000000000007cde       0x28 d:/mounriver_studio/toolchain/risc-v embedded gcc/bin/../lib/gcc/riscv-none-embed/8.2.0/../../../../riscv-none-embed/lib/rv32imacxw/ilp32\libg_nano.a(lib_a-nano-vfprintf.o)
 .text.__sfputs_r
                0x0000000000007d06       0x42 d:/mounriver_studio/toolchain/risc-v embedded gcc/bin/../lib/gcc/riscv-none-embed/8.2.0/../../../../riscv-none-embed/lib/rv32imacxw/ilp32\libg_nano.a(lib_a-nano-vfprintf.o)
                0x0000000000007d06                __sfputs_r
 .text._vfprintf_r
                0x0000000000007d48      0x288 d:/mounriver_studio/toolchain/risc-v embedded gcc/bin/../lib/gcc/riscv-none-embed/8.2.0/../../../../riscv-none-embed/lib/rv32imacxw/ilp32\libg_nano.a(lib_a-nano-vfprintf.o)
                0x0000000000007d48                _vfprintf_r
                0x0000000000007d48                _vfiprintf_r
 .text._printf_common
                0x0000000000007fd0      0x10c d:/mounriver_studio/toolchain/risc-v embedded gcc/bin/../lib/gcc/riscv-none-embed/8.2.0/../../../../riscv-none-embed/lib/rv32imacxw/ilp32\libg_nano.a(lib_a-nano-vfprintf_i.o)
                0x0000000000007fd0                _printf_common
 .text._printf_i
                0x00000000000080dc      0x2a2 d:/mounriver_studio/toolchain/risc-v embedded gcc/bin/../lib/gcc/riscv-none-embed/8.2.0/../../../../riscv-none-embed/lib/rv32imacxw/ilp32\libg_nano.a(lib_a-nano-vfprintf_i.o)
                0x00000000000080dc                _printf_i
 .text._sbrk_r  0x000000000000837e       0x32 d:/mounriver_studio/toolchain/risc-v embedded gcc/bin/../lib/gcc/riscv-none-embed/8.2.0/../../../../riscv-none-embed/lib/rv32imacxw/ilp32\libg_nano.a(lib_a-sbrkr.o)
                0x000000000000837e                _sbrk_r
 .text.__sread  0x00000000000083b0       0x2c d:/mounriver_studio/toolchain/risc-v embedded gcc/bin/../lib/gcc/riscv-none-embed/8.2.0/../../../../riscv-none-embed/lib/rv32imacxw/ilp32\libg_nano.a(lib_a-stdio.o)
                0x00000000000083b0                __sread
 .text.__swrite
                0x00000000000083dc       0x48 d:/mounriver_studio/toolchain/risc-v embedded gcc/bin/../lib/gcc/riscv-none-embed/8.2.0/../../../../riscv-none-embed/lib/rv32imacxw/ilp32\libg_nano.a(lib_a-stdio.o)
                0x00000000000083dc                __swrite
 .text.__sseek  0x0000000000008424       0x30 d:/mounriver_studio/toolchain/risc-v embedded gcc/bin/../lib/gcc/riscv-none-embed/8.2.0/../../../../riscv-none-embed/lib/rv32imacxw/ilp32\libg_nano.a(lib_a-stdio.o)
                0x0000000000008424                __sseek
 .text.__sclose
                0x0000000000008454        0x6 d:/mounriver_studio/toolchain/risc-v embedded gcc/bin/../lib/gcc/riscv-none-embed/8.2.0/../../../../riscv-none-embed/lib/rv32imacxw/ilp32\libg_nano.a(lib_a-stdio.o)
                0x0000000000008454                __sclose
 .text._write_r
                0x000000000000845a       0x36 d:/mounriver_studio/toolchain/risc-v embedded gcc/bin/../lib/gcc/riscv-none-embed/8.2.0/../../../../riscv-none-embed/lib/rv32imacxw/ilp32\libg_nano.a(lib_a-writer.o)
                0x000000000000845a                _write_r
 .text._close_r
                0x0000000000008490       0x30 d:/mounriver_studio/toolchain/risc-v embedded gcc/bin/../lib/gcc/riscv-none-embed/8.2.0/../../../../riscv-none-embed/lib/rv32imacxw/ilp32\libg_nano.a(lib_a-closer.o)
                0x0000000000008490                _close_r
 .text._fstat_r
                0x00000000000084c0       0x32 d:/mounriver_studio/toolchain/risc-v embedded gcc/bin/../lib/gcc/riscv-none-embed/8.2.0/../../../../riscv-none-embed/lib/rv32imacxw/ilp32\libg_nano.a(lib_a-fstatr.o)
                0x00000000000084c0                _fstat_r
 .text._isatty_r
                0x00000000000084f2       0x30 d:/mounriver_studio/toolchain/risc-v embedded gcc/bin/../lib/gcc/riscv-none-embed/8.2.0/../../../../riscv-none-embed/lib/rv32imacxw/ilp32\libg_nano.a(lib_a-isattyr.o)
                0x00000000000084f2                _isatty_r
 .text._lseek_r
                0x0000000000008522       0x34 d:/mounriver_studio/toolchain/risc-v embedded gcc/bin/../lib/gcc/riscv-none-embed/8.2.0/../../../../riscv-none-embed/lib/rv32imacxw/ilp32\libg_nano.a(lib_a-lseekr.o)
                0x0000000000008522                _lseek_r
 .text.memchr   0x0000000000008556       0x18 d:/mounriver_studio/toolchain/risc-v embedded gcc/bin/../lib/gcc/riscv-none-embed/8.2.0/../../../../riscv-none-embed/lib/rv32imacxw/ilp32\libg_nano.a(lib_a-memchr.o)
                0x0000000000008556                memchr
 .text.memmove  0x000000000000856e       0x46 d:/mounriver_studio/toolchain/risc-v embedded gcc/bin/../lib/gcc/riscv-none-embed/8.2.0/../../../../riscv-none-embed/lib/rv32imacxw/ilp32\libg_nano.a(lib_a-memmove.o)
                0x000000000000856e                memmove
 .text.__malloc_lock
                0x00000000000085b4        0x2 d:/mounriver_studio/toolchain/risc-v embedded gcc/bin/../lib/gcc/riscv-none-embed/8.2.0/../../../../riscv-none-embed/lib/rv32imacxw/ilp32\libg_nano.a(lib_a-mlock.o)
                0x00000000000085b4                __malloc_lock
 .text.__malloc_unlock
                0x00000000000085b6        0x2 d:/mounriver_studio/toolchain/risc-v embedded gcc/bin/../lib/gcc/riscv-none-embed/8.2.0/../../../../riscv-none-embed/lib/rv32imacxw/ilp32\libg_nano.a(lib_a-mlock.o)
                0x00000000000085b6                __malloc_unlock
 .text._realloc_r
                0x00000000000085b8       0x58 d:/mounriver_studio/toolchain/risc-v embedded gcc/bin/../lib/gcc/riscv-none-embed/8.2.0/../../../../riscv-none-embed/lib/rv32imacxw/ilp32\libg_nano.a(lib_a-nano-reallocr.o)
                0x00000000000085b8                _realloc_r
 .text._read_r  0x0000000000008610       0x34 d:/mounriver_studio/toolchain/risc-v embedded gcc/bin/../lib/gcc/riscv-none-embed/8.2.0/../../../../riscv-none-embed/lib/rv32imacxw/ilp32\libg_nano.a(lib_a-readr.o)
                0x0000000000008610                _read_r
 .text._malloc_usable_size_r
                0x0000000000008644       0x14 d:/mounriver_studio/toolchain/risc-v embedded gcc/bin/../lib/gcc/riscv-none-embed/8.2.0/../../../../riscv-none-embed/lib/rv32imacxw/ilp32\libg_nano.a(lib_a-nano-msizer.o)
                0x0000000000008644                _malloc_usable_size_r
 .text._close   0x0000000000008658       0x10 d:/mounriver_studio/toolchain/risc-v embedded gcc/bin/../lib/gcc/riscv-none-embed/8.2.0/../../../../riscv-none-embed/lib/rv32imacxw/ilp32\libnosys.a(close.o)
                0x0000000000008658                _close
 .text._fstat   0x0000000000008668       0x10 d:/mounriver_studio/toolchain/risc-v embedded gcc/bin/../lib/gcc/riscv-none-embed/8.2.0/../../../../riscv-none-embed/lib/rv32imacxw/ilp32\libnosys.a(fstat.o)
                0x0000000000008668                _fstat
 .text._isatty  0x0000000000008678       0x10 d:/mounriver_studio/toolchain/risc-v embedded gcc/bin/../lib/gcc/riscv-none-embed/8.2.0/../../../../riscv-none-embed/lib/rv32imacxw/ilp32\libnosys.a(isatty.o)
                0x0000000000008678                _isatty
 .text._lseek   0x0000000000008688       0x10 d:/mounriver_studio/toolchain/risc-v embedded gcc/bin/../lib/gcc/riscv-none-embed/8.2.0/../../../../riscv-none-embed/lib/rv32imacxw/ilp32\libnosys.a(lseek.o)
                0x0000000000008688                _lseek
 .text._read    0x0000000000008698       0x10 d:/mounriver_studio/toolchain/risc-v embedded gcc/bin/../lib/gcc/riscv-none-embed/8.2.0/../../../../riscv-none-embed/lib/rv32imacxw/ilp32\libnosys.a(read.o)
                0x0000000000008698                _read
 *(.rodata)
 *(.rodata*)
 *fill*         0x00000000000086a8        0x0 
 .rodata.DAP_ProcessCommand
                0x00000000000086a8       0x78 ./DAP/Source/DAP.o
 .rodata.DAP_ProcessCommand.str1.4
                0x0000000000008720        0xf ./DAP/Source/DAP.o
 *fill*         0x000000000000872f        0x1 
 .rodata.cdc_acm_class_interface_request_handler.str1.4
                0x0000000000008730       0x3d ./CherryUSB/usbd_cdc.o
 *fill*         0x000000000000876d        0x3 
 .rodata.usbd_event_ep0_out_complete_handler
                0x0000000000008770       0x28 ./CherryUSB/usbd_core.o
 .rodata.usbd_event_ep0_setup_complete_handler
                0x0000000000008798       0x28 ./CherryUSB/usbd_core.o
 .rodata.usbd_event_ep0_out_complete_handler.str1.4
                0x00000000000087c0      0x21f ./CherryUSB/usbd_core.o
                                        0x227 (size before relaxing)
 *fill*         0x00000000000089df        0x1 
 .rodata.usbd_event_ep0_setup_complete_handler.str1.4
                0x00000000000089e0       0x1a ./CherryUSB/usbd_core.o
 *fill*         0x00000000000089fa        0x2 
 .rodata.USBD_BinaryObjectStoreDescriptor
                0x00000000000089fc       0x21 ./CherryDAP/dap_main.o
                0x00000000000089fc                USBD_BinaryObjectStoreDescriptor
 *fill*         0x0000000000008a1d        0x3 
 .rodata.USBD_WinUSBDescriptorSetDescriptor
                0x0000000000008a20       0xaa ./CherryDAP/dap_main.o
                0x0000000000008a20                USBD_WinUSBDescriptorSetDescriptor
 *fill*         0x0000000000008aca        0x2 
 .rodata.cmsisdap_descriptor
                0x0000000000008acc       0xe3 ./CherryDAP/dap_main.o
                0x0000000000008acc                cmsisdap_descriptor
 *fill*         0x0000000000008baf        0x1 
 .rodata.__sf_fake_stderr
                0x0000000000008bb0       0x20 d:/mounriver_studio/toolchain/risc-v embedded gcc/bin/../lib/gcc/riscv-none-embed/8.2.0/../../../../riscv-none-embed/lib/rv32imacxw/ilp32\libg_nano.a(lib_a-findfp.o)
                0x0000000000008bb0                __sf_fake_stderr
 .rodata.__sf_fake_stdin
                0x0000000000008bd0       0x20 d:/mounriver_studio/toolchain/risc-v embedded gcc/bin/../lib/gcc/riscv-none-embed/8.2.0/../../../../riscv-none-embed/lib/rv32imacxw/ilp32\libg_nano.a(lib_a-findfp.o)
                0x0000000000008bd0                __sf_fake_stdin
 .rodata.__sf_fake_stdout
                0x0000000000008bf0       0x20 d:/mounriver_studio/toolchain/risc-v embedded gcc/bin/../lib/gcc/riscv-none-embed/8.2.0/../../../../riscv-none-embed/lib/rv32imacxw/ilp32\libg_nano.a(lib_a-findfp.o)
                0x0000000000008bf0                __sf_fake_stdout
 .rodata._svfprintf_r.str1.4
                0x0000000000008c10       0x13 d:/mounriver_studio/toolchain/risc-v embedded gcc/bin/../lib/gcc/riscv-none-embed/8.2.0/../../../../riscv-none-embed/lib/rv32imacxw/ilp32\libg_nano.a(lib_a-nano-svfprintf.o)
 .rodata._vfprintf_r.str1.4
                0x0000000000008c23       0x13 d:/mounriver_studio/toolchain/risc-v embedded gcc/bin/../lib/gcc/riscv-none-embed/8.2.0/../../../../riscv-none-embed/lib/rv32imacxw/ilp32\libg_nano.a(lib_a-nano-vfprintf.o)
 *fill*         0x0000000000008c23        0x1 
 .rodata._printf_i.str1.4
                0x0000000000008c24       0x28 d:/mounriver_studio/toolchain/risc-v embedded gcc/bin/../lib/gcc/riscv-none-embed/8.2.0/../../../../riscv-none-embed/lib/rv32imacxw/ilp32\libg_nano.a(lib_a-nano-vfprintf_i.o)
                                         0x25 (size before relaxing)
 *(.gnu.linkonce.t.*)
                0x0000000000008c4c                . = ALIGN (0x4)

.rela.dyn       0x0000000000008c4c        0x0
 .rela.init     0x0000000000008c4c        0x0 ./User/ch32v30x_it.o
 .rela.vector   0x0000000000008c4c        0x0 ./User/ch32v30x_it.o
 .rela.text.handle_reset
                0x0000000000008c4c        0x0 ./User/ch32v30x_it.o
 .rela.text._sbrk
                0x0000000000008c4c        0x0 ./User/ch32v30x_it.o
 .rela.sdata.curbrk.5215
                0x0000000000008c4c        0x0 ./User/ch32v30x_it.o
 .rela.text.cdc_acm_class_interface_request_handler
                0x0000000000008c4c        0x0 ./User/ch32v30x_it.o
 .rela.text._svfprintf_r
                0x0000000000008c4c        0x0 ./User/ch32v30x_it.o
 .rela.text._vfprintf_r
                0x0000000000008c4c        0x0 ./User/ch32v30x_it.o
 .rela.text._sbrk_r
                0x0000000000008c4c        0x0 ./User/ch32v30x_it.o
 .rela.text._write_r
                0x0000000000008c4c        0x0 ./User/ch32v30x_it.o
 .rela.text._close_r
                0x0000000000008c4c        0x0 ./User/ch32v30x_it.o
 .rela.text._fstat_r
                0x0000000000008c4c        0x0 ./User/ch32v30x_it.o
 .rela.text._isatty_r
                0x0000000000008c4c        0x0 ./User/ch32v30x_it.o
 .rela.text._lseek_r
                0x0000000000008c4c        0x0 ./User/ch32v30x_it.o
 .rela.text._read_r
                0x0000000000008c4c        0x0 ./User/ch32v30x_it.o
 .rela.text._close
                0x0000000000008c4c        0x0 ./User/ch32v30x_it.o
 .rela.text._fstat
                0x0000000000008c4c        0x0 ./User/ch32v30x_it.o
 .rela.text._isatty
                0x0000000000008c4c        0x0 ./User/ch32v30x_it.o
 .rela.text._lseek
                0x0000000000008c4c        0x0 ./User/ch32v30x_it.o
 .rela.text._read
                0x0000000000008c4c        0x0 ./User/ch32v30x_it.o

.fini           0x0000000000008c4c        0x0
 *(SORT_NONE(.fini))
                0x0000000000008c4c                . = ALIGN (0x4)
                [!provide]                        PROVIDE (_etext = .)
                [!provide]                        PROVIDE (_eitcm = .)

.preinit_array  0x0000000000008c4c        0x0
                [!provide]                        PROVIDE (__preinit_array_start = .)
 *(.preinit_array)
                [!provide]                        PROVIDE (__preinit_array_end = .)

.init_array     0x0000000000008c4c        0x0
                [!provide]                        PROVIDE (__init_array_start = .)
 *(SORT_BY_INIT_PRIORITY(.init_array.*) SORT_BY_INIT_PRIORITY(.ctors.*))
 *(.init_array EXCLUDE_FILE(*crtend?.o *crtend.o *crtbegin?.o *crtbegin.o) .ctors)
                [!provide]                        PROVIDE (__init_array_end = .)

.fini_array     0x0000000000008c4c        0x0
                [!provide]                        PROVIDE (__fini_array_start = .)
 *(SORT_BY_INIT_PRIORITY(.fini_array.*) SORT_BY_INIT_PRIORITY(.dtors.*))
 *(.fini_array EXCLUDE_FILE(*crtend?.o *crtend.o *crtbegin?.o *crtbegin.o) .dtors)
                [!provide]                        PROVIDE (__fini_array_end = .)

.ctors
 *crtbegin.o(.ctors)
 *crtbegin?.o(.ctors)
 *(EXCLUDE_FILE(*crtend?.o *crtend.o) .ctors)
 *(SORT_BY_NAME(.ctors.*))
 *(.ctors)

.dtors
 *crtbegin.o(.dtors)
 *crtbegin?.o(.dtors)
 *(EXCLUDE_FILE(*crtend?.o *crtend.o) .dtors)
 *(SORT_BY_NAME(.dtors.*))
 *(.dtors)

.dalign         0x0000000020000000        0x0 load address 0x0000000000008c4c
                0x0000000020000000                . = ALIGN (0x4)
                0x0000000020000000                PROVIDE (_data_vma = .)

.dlalign        0x0000000000008c4c        0x0
                0x0000000000008c4c                . = ALIGN (0x4)
                0x0000000000008c4c                PROVIDE (_data_lma = .)

.data           0x0000000020000000       0xd0 load address 0x0000000000008c4c
 *(.gnu.linkonce.r.*)
 *(.data .data.*)
 .data.AHBPrescTable
                0x0000000020000000       0x10 ./User/system_ch32v30x.o
                0x0000000020000000                AHBPrescTable
 .data.APBAHBPrescTable
                0x0000000020000010       0x10 ./Peripheral/src/ch32v30x_rcc.o
 .data.impure_data
                0x0000000020000020       0x60 d:/mounriver_studio/toolchain/risc-v embedded gcc/bin/../lib/gcc/riscv-none-embed/8.2.0/../../../../riscv-none-embed/lib/rv32imacxw/ilp32\libg_nano.a(lib_a-impure.o)
 *(.gnu.linkonce.d.*)
                0x0000000020000080                . = ALIGN (0x8)
                0x0000000020000880                PROVIDE (__global_pointer$ = (. + 0x800))
 *(.sdata .sdata.*)
 .sdata.SystemCoreClock
                0x0000000020000080        0x4 ./User/system_ch32v30x.o
                0x0000000020000080                SystemCoreClock
 .sdata.ADCPrescTable
                0x0000000020000084        0x4 ./Peripheral/src/ch32v30x_rcc.o
 .sdata.curbrk.5215
                0x0000000020000088        0x4 ./Debug/debug.o
 .sdata.bos_desc
                0x000000002000008c        0x8 ./CherryDAP/dap_main.o
                0x000000002000008c                bos_desc
 .sdata.cdc_in_ep
                0x0000000020000094        0x8 ./CherryDAP/dap_main.o
 .sdata.cdc_out_ep
                0x000000002000009c        0x8 ./CherryDAP/dap_main.o
 .sdata.dap_in_ep
                0x00000000200000a4        0x8 ./CherryDAP/dap_main.o
 .sdata.dap_out_ep
                0x00000000200000ac        0x8 ./CherryDAP/dap_main.o
 .sdata.msosv2_desc
                0x00000000200000b4        0x8 ./CherryDAP/dap_main.o
                0x00000000200000b4                msosv2_desc
 .sdata._impure_ptr
                0x00000000200000bc        0x4 d:/mounriver_studio/toolchain/risc-v embedded gcc/bin/../lib/gcc/riscv-none-embed/8.2.0/../../../../riscv-none-embed/lib/rv32imacxw/ilp32\libg_nano.a(lib_a-impure.o)
                0x00000000200000bc                _impure_ptr
 *(.sdata2.*)
 .sdata2.DAP_FW_Ver
                0x00000000200000c0        0x6 ./DAP/Source/DAP.o
 *fill*         0x00000000200000c6        0x2 
 .sdata2._global_impure_ptr
                0x00000000200000c8        0x4 d:/mounriver_studio/toolchain/risc-v embedded gcc/bin/../lib/gcc/riscv-none-embed/8.2.0/../../../../riscv-none-embed/lib/rv32imacxw/ilp32\libg_nano.a(lib_a-impure.o)
                0x00000000200000c8                _global_impure_ptr
 *(.gnu.linkonce.s.*)
                0x00000000200000d0                . = ALIGN (0x8)
 *fill*         0x00000000200000cc        0x4 
 *(.srodata.cst16)
 *(.srodata.cst8)
 *(.srodata.cst4)
 *(.srodata.cst2)
 *(.srodata .srodata.*)
                0x00000000200000d0                . = ALIGN (0x4)
                0x00000000200000d0                PROVIDE (_edata = .)

.noncacheable   0x00000000200000d0     0x6410 load address 0x0000000000008d1c
 .noncacheable  0x00000000200000d0      0x210 ./CherryUSB/usbd_core.o
                0x00000000200000d0                g_usbd_core
 .noncacheable  0x00000000200002e0     0x6200 ./CherryDAP/dap_main.o

.bss            0x00000000200064e0      0x5a4 load address 0x000000000000f12c
                0x00000000200064e0                . = ALIGN (0x4)
                0x00000000200064e0                PROVIDE (_sbss = .)
 *(.sbss*)
 .sbss.NVIC_Priority_Group
                0x00000000200064e0        0x4 ./Peripheral/src/ch32v30x_misc.o
                0x00000000200064e0                NVIC_Priority_Group
 .sbss.p_ms     0x00000000200064e4        0x2 ./Debug/debug.o
 .sbss.p_us     0x00000000200064e6        0x1 ./Debug/debug.o
 .sbss.DAP_TransferAbort
                0x00000000200064e7        0x1 ./DAP/Source/DAP.o
                0x00000000200064e7                DAP_TransferAbort
 .sbss.dap_state
                0x00000000200064e8        0x8 ./DAP/swd_host.o
 .sbss.ep0_rx_data_toggle
                0x00000000200064f0        0x1 ./CherryUSB/usb_dc_usbhs.o
                0x00000000200064f0                ep0_rx_data_toggle
 .sbss.ep0_tx_data_toggle
                0x00000000200064f1        0x1 ./CherryUSB/usb_dc_usbhs.o
                0x00000000200064f1                ep0_tx_data_toggle
 .sbss.USB_RequestCountI
                0x00000000200064f2        0x2 ./CherryDAP/dap_main.o
 .sbss.USB_RequestCountO
                0x00000000200064f4        0x2 ./CherryDAP/dap_main.o
 .sbss.USB_RequestIdle
                0x00000000200064f6        0x1 ./CherryDAP/dap_main.o
 *fill*         0x00000000200064f7        0x1 
 .sbss.USB_RequestIndexI
                0x00000000200064f8        0x2 ./CherryDAP/dap_main.o
 .sbss.USB_RequestIndexO
                0x00000000200064fa        0x2 ./CherryDAP/dap_main.o
 .sbss.USB_ResponseCountI
                0x00000000200064fc        0x2 ./CherryDAP/dap_main.o
 .sbss.USB_ResponseCountO
                0x00000000200064fe        0x2 ./CherryDAP/dap_main.o
 .sbss.USB_ResponseIdle
                0x0000000020006500        0x1 ./CherryDAP/dap_main.o
 *fill*         0x0000000020006501        0x1 
 .sbss.USB_ResponseIndexI
                0x0000000020006502        0x2 ./CherryDAP/dap_main.o
 .sbss.USB_ResponseIndexO
                0x0000000020006504        0x2 ./CherryDAP/dap_main.o
 .sbss.config_uart
                0x0000000020006506        0x1 ./CherryDAP/dap_main.o
                0x0000000020006506                config_uart
 .sbss.config_uart_transfer
                0x0000000020006507        0x1 ./CherryDAP/dap_main.o
                0x0000000020006507                config_uart_transfer
 .sbss.g_cdc_lincoding
                0x0000000020006508        0x7 ./CherryDAP/dap_main.o
                0x0000000020006508                g_cdc_lincoding
 .sbss.uarttx_idle_flag
                0x000000002000650f        0x1 ./CherryDAP/dap_main.o
 .sbss.usbrx_idle_flag
                0x0000000020006510        0x1 ./CherryDAP/dap_main.o
 .sbss.usbtx_idle_flag
                0x0000000020006511        0x1 ./CherryDAP/dap_main.o
 *fill*         0x0000000020006512        0x2 
 .sbss.__malloc_free_list
                0x0000000020006514        0x4 d:/mounriver_studio/toolchain/risc-v embedded gcc/bin/../lib/gcc/riscv-none-embed/8.2.0/../../../../riscv-none-embed/lib/rv32imacxw/ilp32\libg_nano.a(lib_a-nano-mallocr.o)
                0x0000000020006514                __malloc_free_list
 .sbss.__malloc_sbrk_start
                0x0000000020006518        0x4 d:/mounriver_studio/toolchain/risc-v embedded gcc/bin/../lib/gcc/riscv-none-embed/8.2.0/../../../../riscv-none-embed/lib/rv32imacxw/ilp32\libg_nano.a(lib_a-nano-mallocr.o)
                0x0000000020006518                __malloc_sbrk_start
 *(.gnu.linkonce.sb.*)
 *(.bss*)
 .bss.RxBuffer1
                0x000000002000651c      0x200 ./User/usb2uart.o
                0x000000002000651c                RxBuffer1
 .bss.DAP_Data  0x000000002000671c       0x44 ./DAP/Source/DAP.o
                0x000000002000671c                DAP_Data
 .bss.epx_tx_data_toggle
                0x0000000020006760        0xf ./CherryUSB/usb_dc_usbhs.o
                0x0000000020006760                epx_tx_data_toggle
 *fill*         0x000000002000676f        0x1 
 .bss.g_ch32_usbhs_udc
                0x0000000020006770      0x28c ./CherryUSB/usb_dc_usbhs.o
                0x0000000020006770                g_ch32_usbhs_udc
 .bss.USB_RespSize
                0x00000000200069fc       0x10 ./CherryDAP/dap_main.o
 .bss.dap_intf  0x0000000020006a0c       0x1c ./CherryDAP/dap_main.o
                0x0000000020006a0c                dap_intf
 .bss.g_uartrx  0x0000000020006a28       0x10 ./CherryDAP/dap_main.o
                0x0000000020006a28                g_uartrx
 .bss.g_usbrx   0x0000000020006a38       0x10 ./CherryDAP/dap_main.o
                0x0000000020006a38                g_usbrx
 .bss.intf1     0x0000000020006a48       0x1c ./CherryDAP/dap_main.o
                0x0000000020006a48                intf1
 .bss.intf2     0x0000000020006a64       0x1c ./CherryDAP/dap_main.o
                0x0000000020006a64                intf2
 *(.gnu.linkonce.b.*)
 *(COMMON*)
 COMMON         0x0000000020006a80        0x4 d:/mounriver_studio/toolchain/risc-v embedded gcc/bin/../lib/gcc/riscv-none-embed/8.2.0/../../../../riscv-none-embed/lib/rv32imacxw/ilp32\libg_nano.a(lib_a-reent.o)
                0x0000000020006a80                errno
                0x0000000020006a84                . = ALIGN (0x4)
                0x0000000020006a84                PROVIDE (_ebss = .)
                0x0000000020006a84                PROVIDE (_end = _ebss)
                [!provide]                        PROVIDE (end = .)

.stack          0x0000000020007800      0x800
                0x0000000020007800                PROVIDE (_heap_end = .)
                0x0000000020007800                . = ALIGN (0x4)
                [!provide]                        PROVIDE (_susrstack = .)
                0x0000000020008000                . = (. + __stack_size)
 *fill*         0x0000000020007800      0x800 
                0x0000000020008000                PROVIDE (_eusrstack = .)
OUTPUT(ISO_DAPlink_MINI_V1.1.elf elf32-littleriscv)

.debug_info     0x0000000000000000    0x21bda
 .debug_info    0x0000000000000000      0x962 ./User/ch32v30x_it.o
 .debug_info    0x0000000000000962     0x13e1 ./User/main.o
 .debug_info    0x0000000000001d43      0xb89 ./User/system_ch32v30x.o
 .debug_info    0x00000000000028cc     0x1210 ./User/usb2uart.o
 .debug_info    0x0000000000003adc       0x22 ./Startup/startup_ch32v30x_D8C.o
 .debug_info    0x0000000000003afe      0xd40 ./Peripheral/src/ch32v30x_dma.o
 .debug_info    0x000000000000483e     0x1104 ./Peripheral/src/ch32v30x_gpio.o
 .debug_info    0x0000000000005942      0xfb3 ./Peripheral/src/ch32v30x_misc.o
 .debug_info    0x00000000000068f5     0x15d6 ./Peripheral/src/ch32v30x_rcc.o
 .debug_info    0x0000000000007ecb     0x14cb ./Peripheral/src/ch32v30x_usart.o
 .debug_info    0x0000000000009396      0xcb6 ./Debug/debug.o
 .debug_info    0x000000000000a04c     0x2c62 ./DAP/Source/DAP.o
 .debug_info    0x000000000000ccae      0xb67 ./DAP/Source/DAP_vendor.o
 .debug_info    0x000000000000d815     0x375e ./DAP/Source/JTAG_DP.o
 .debug_info    0x0000000000010f73     0x245e ./DAP/Source/SW_DP.o
 .debug_info    0x00000000000133d1     0x65a9 ./DAP/swd_host.o
 .debug_info    0x000000000001997a     0x15cd ./CherryUSB/usb_dc_usbhs.o
 .debug_info    0x000000000001af47      0xdd7 ./CherryUSB/usbd_cdc.o
 .debug_info    0x000000000001bd1e     0x3039 ./CherryUSB/usbd_core.o
 .debug_info    0x000000000001ed57     0x125a ./CherryRB/chry_ringbuffer.o
 .debug_info    0x000000000001ffb1     0x1c29 ./CherryDAP/dap_main.o

.debug_abbrev   0x0000000000000000     0x463f
 .debug_abbrev  0x0000000000000000      0x1cf ./User/ch32v30x_it.o
 .debug_abbrev  0x00000000000001cf      0x344 ./User/main.o
 .debug_abbrev  0x0000000000000513      0x2c0 ./User/system_ch32v30x.o
 .debug_abbrev  0x00000000000007d3      0x35d ./User/usb2uart.o
 .debug_abbrev  0x0000000000000b30       0x12 ./Startup/startup_ch32v30x_D8C.o
 .debug_abbrev  0x0000000000000b42      0x33b ./Peripheral/src/ch32v30x_dma.o
 .debug_abbrev  0x0000000000000e7d      0x2fe ./Peripheral/src/ch32v30x_gpio.o
 .debug_abbrev  0x000000000000117b      0x2f2 ./Peripheral/src/ch32v30x_misc.o
 .debug_abbrev  0x000000000000146d      0x3dd ./Peripheral/src/ch32v30x_rcc.o
 .debug_abbrev  0x000000000000184a      0x307 ./Peripheral/src/ch32v30x_usart.o
 .debug_abbrev  0x0000000000001b51      0x2c6 ./Debug/debug.o
 .debug_abbrev  0x0000000000001e17      0x513 ./DAP/Source/DAP.o
 .debug_abbrev  0x000000000000232a      0x1fc ./DAP/Source/DAP_vendor.o
 .debug_abbrev  0x0000000000002526      0x425 ./DAP/Source/JTAG_DP.o
 .debug_abbrev  0x000000000000294b      0x3c8 ./DAP/Source/SW_DP.o
 .debug_abbrev  0x0000000000002d13      0x5a7 ./DAP/swd_host.o
 .debug_abbrev  0x00000000000032ba      0x36c ./CherryUSB/usb_dc_usbhs.o
 .debug_abbrev  0x0000000000003626      0x330 ./CherryUSB/usbd_cdc.o
 .debug_abbrev  0x0000000000003956      0x4c6 ./CherryUSB/usbd_core.o
 .debug_abbrev  0x0000000000003e1c      0x40c ./CherryRB/chry_ringbuffer.o
 .debug_abbrev  0x0000000000004228      0x417 ./CherryDAP/dap_main.o

.debug_aranges  0x0000000000000000      0x9b0
 .debug_aranges
                0x0000000000000000       0x28 ./User/ch32v30x_it.o
 .debug_aranges
                0x0000000000000028       0x40 ./User/main.o
 .debug_aranges
                0x0000000000000068       0x28 ./User/system_ch32v30x.o
 .debug_aranges
                0x0000000000000090       0x38 ./User/usb2uart.o
 .debug_aranges
                0x00000000000000c8       0x30 ./Startup/startup_ch32v30x_D8C.o
 .debug_aranges
                0x00000000000000f8       0x60 ./Peripheral/src/ch32v30x_dma.o
 .debug_aranges
                0x0000000000000158       0xa8 ./Peripheral/src/ch32v30x_gpio.o
 .debug_aranges
                0x0000000000000200       0x28 ./Peripheral/src/ch32v30x_misc.o
 .debug_aranges
                0x0000000000000228      0x1a8 ./Peripheral/src/ch32v30x_rcc.o
 .debug_aranges
                0x00000000000003d0      0x100 ./Peripheral/src/ch32v30x_usart.o
 .debug_aranges
                0x00000000000004d0       0x48 ./Debug/debug.o
 .debug_aranges
                0x0000000000000518       0x40 ./DAP/Source/DAP.o
 .debug_aranges
                0x0000000000000558       0x20 ./DAP/Source/DAP_vendor.o
 .debug_aranges
                0x0000000000000578       0x40 ./DAP/Source/JTAG_DP.o
 .debug_aranges
                0x00000000000005b8       0x30 ./DAP/Source/SW_DP.o
 .debug_aranges
                0x00000000000005e8      0x100 ./DAP/swd_host.o
 .debug_aranges
                0x00000000000006e8       0x80 ./CherryUSB/usb_dc_usbhs.o
 .debug_aranges
                0x0000000000000768       0x48 ./CherryUSB/usbd_cdc.o
 .debug_aranges
                0x00000000000007b0       0xb8 ./CherryUSB/usbd_core.o
 .debug_aranges
                0x0000000000000868       0xc8 ./CherryRB/chry_ringbuffer.o
 .debug_aranges
                0x0000000000000930       0x80 ./CherryDAP/dap_main.o

.debug_ranges   0x0000000000000000     0x4048
 .debug_ranges  0x0000000000000000       0x18 ./User/ch32v30x_it.o
 .debug_ranges  0x0000000000000018       0x30 ./User/main.o
 .debug_ranges  0x0000000000000048       0x38 ./User/system_ch32v30x.o
 .debug_ranges  0x0000000000000080       0x60 ./User/usb2uart.o
 .debug_ranges  0x00000000000000e0       0x28 ./Startup/startup_ch32v30x_D8C.o
 .debug_ranges  0x0000000000000108       0x50 ./Peripheral/src/ch32v30x_dma.o
 .debug_ranges  0x0000000000000158       0x98 ./Peripheral/src/ch32v30x_gpio.o
 .debug_ranges  0x00000000000001f0       0x68 ./Peripheral/src/ch32v30x_misc.o
 .debug_ranges  0x0000000000000258      0x1e8 ./Peripheral/src/ch32v30x_rcc.o
 .debug_ranges  0x0000000000000440       0xf0 ./Peripheral/src/ch32v30x_usart.o
 .debug_ranges  0x0000000000000530       0x38 ./Debug/debug.o
 .debug_ranges  0x0000000000000568      0x818 ./DAP/Source/DAP.o
 .debug_ranges  0x0000000000000d80       0x10 ./DAP/Source/DAP_vendor.o
 .debug_ranges  0x0000000000000d90      0xcb8 ./DAP/Source/JTAG_DP.o
 .debug_ranges  0x0000000000001a48      0xa28 ./DAP/Source/SW_DP.o
 .debug_ranges  0x0000000000002470     0x10c8 ./DAP/swd_host.o
 .debug_ranges  0x0000000000003538       0xa8 ./CherryUSB/usb_dc_usbhs.o
 .debug_ranges  0x00000000000035e0       0x38 ./CherryUSB/usbd_cdc.o
 .debug_ranges  0x0000000000003618      0x810 ./CherryUSB/usbd_core.o
 .debug_ranges  0x0000000000003e28      0x178 ./CherryRB/chry_ringbuffer.o
 .debug_ranges  0x0000000000003fa0       0xa8 ./CherryDAP/dap_main.o

.debug_line     0x0000000000000000    0x225b7
 .debug_line    0x0000000000000000      0x20c ./User/ch32v30x_it.o
 .debug_line    0x000000000000020c      0x7c8 ./User/main.o
 .debug_line    0x00000000000009d4      0x797 ./User/system_ch32v30x.o
 .debug_line    0x000000000000116b      0xb95 ./User/usb2uart.o
 .debug_line    0x0000000000001d00      0x356 ./Startup/startup_ch32v30x_D8C.o
 .debug_line    0x0000000000002056      0x9f7 ./Peripheral/src/ch32v30x_dma.o
 .debug_line    0x0000000000002a4d     0x20e6 ./Peripheral/src/ch32v30x_gpio.o
 .debug_line    0x0000000000004b33      0x546 ./Peripheral/src/ch32v30x_misc.o
 .debug_line    0x0000000000005079     0x1b4b ./Peripheral/src/ch32v30x_rcc.o
 .debug_line    0x0000000000006bc4     0x1071 ./Peripheral/src/ch32v30x_usart.o
 .debug_line    0x0000000000007c35      0x58e ./Debug/debug.o
 .debug_line    0x00000000000081c3     0x4d8d ./DAP/Source/DAP.o
 .debug_line    0x000000000000cf50      0x272 ./DAP/Source/DAP_vendor.o
 .debug_line    0x000000000000d1c2     0x5323 ./DAP/Source/JTAG_DP.o
 .debug_line    0x00000000000124e5     0x3405 ./DAP/Source/SW_DP.o
 .debug_line    0x00000000000158ea     0x5bbb ./DAP/swd_host.o
 .debug_line    0x000000000001b4a5     0x150c ./CherryUSB/usb_dc_usbhs.o
 .debug_line    0x000000000001c9b1      0x5fb ./CherryUSB/usbd_cdc.o
 .debug_line    0x000000000001cfac     0x36a3 ./CherryUSB/usbd_core.o
 .debug_line    0x000000000002064f      0xdd0 ./CherryRB/chry_ringbuffer.o
 .debug_line    0x000000000002141f     0x1198 ./CherryDAP/dap_main.o

.debug_str      0x0000000000000000     0x40dd
 .debug_str     0x0000000000000000      0x522 ./User/ch32v30x_it.o
                                        0x5b1 (size before relaxing)
 .debug_str     0x0000000000000522      0x947 ./User/main.o
                                        0xef3 (size before relaxing)
 .debug_str     0x0000000000000e69       0xf6 ./User/system_ch32v30x.o
                                        0x6c8 (size before relaxing)
 .debug_str     0x0000000000000f5f      0x2b5 ./User/usb2uart.o
                                        0xa81 (size before relaxing)
 .debug_str     0x0000000000001214       0x2e ./Startup/startup_ch32v30x_D8C.o
                                         0x65 (size before relaxing)
 .debug_str     0x0000000000001242      0x135 ./Peripheral/src/ch32v30x_dma.o
                                        0x7ee (size before relaxing)
 .debug_str     0x0000000000001377      0x216 ./Peripheral/src/ch32v30x_gpio.o
                                        0x96c (size before relaxing)
 .debug_str     0x000000000000158d      0x105 ./Peripheral/src/ch32v30x_misc.o
                                        0xcc6 (size before relaxing)
 .debug_str     0x0000000000001692      0x531 ./Peripheral/src/ch32v30x_rcc.o
                                        0xcc5 (size before relaxing)
 .debug_str     0x0000000000001bc3      0x367 ./Peripheral/src/ch32v30x_usart.o
                                        0xb12 (size before relaxing)
 .debug_str     0x0000000000001f2a       0x7d ./Debug/debug.o
                                        0x7ec (size before relaxing)
 .debug_str     0x0000000000001fa7      0x64f ./DAP/Source/DAP.o
                                        0xe11 (size before relaxing)
 .debug_str     0x00000000000025f6       0x1b ./DAP/Source/DAP_vendor.o
                                        0x6cb (size before relaxing)
 .debug_str     0x0000000000002611       0x71 ./DAP/Source/JTAG_DP.o
                                        0x802 (size before relaxing)
 .debug_str     0x0000000000002682       0x5d ./DAP/Source/SW_DP.o
                                        0x7f6 (size before relaxing)
 .debug_str     0x00000000000026df      0x372 ./DAP/swd_host.o
                                        0xc5a (size before relaxing)
 .debug_str     0x0000000000002a51      0x897 ./CherryUSB/usb_dc_usbhs.o
                                        0xeeb (size before relaxing)
 .debug_str     0x00000000000032e8      0x1a9 ./CherryUSB/usbd_cdc.o
                                        0x7ff (size before relaxing)
 .debug_str     0x0000000000003491      0x6ea ./CherryUSB/usbd_core.o
                                        0xf80 (size before relaxing)
 .debug_str     0x0000000000003b7b      0x26c ./CherryRB/chry_ringbuffer.o
                                        0x847 (size before relaxing)
 .debug_str     0x0000000000003de7      0x2f6 ./CherryDAP/dap_main.o
                                       0x1035 (size before relaxing)

.comment        0x0000000000000000       0x33
 .comment       0x0000000000000000       0x33 ./User/ch32v30x_it.o
                                         0x34 (size before relaxing)
 .comment       0x0000000000000033       0x34 ./User/main.o
 .comment       0x0000000000000033       0x34 ./User/system_ch32v30x.o
 .comment       0x0000000000000033       0x34 ./User/usb2uart.o
 .comment       0x0000000000000033       0x34 ./Peripheral/src/ch32v30x_dma.o
 .comment       0x0000000000000033       0x34 ./Peripheral/src/ch32v30x_gpio.o
 .comment       0x0000000000000033       0x34 ./Peripheral/src/ch32v30x_misc.o
 .comment       0x0000000000000033       0x34 ./Peripheral/src/ch32v30x_rcc.o
 .comment       0x0000000000000033       0x34 ./Peripheral/src/ch32v30x_usart.o
 .comment       0x0000000000000033       0x34 ./Debug/debug.o
 .comment       0x0000000000000033       0x34 ./DAP/Source/DAP.o
 .comment       0x0000000000000033       0x34 ./DAP/Source/DAP_vendor.o
 .comment       0x0000000000000033       0x34 ./DAP/Source/JTAG_DP.o
 .comment       0x0000000000000033       0x34 ./DAP/Source/SW_DP.o
 .comment       0x0000000000000033       0x34 ./DAP/swd_host.o
 .comment       0x0000000000000033       0x34 ./CherryUSB/usb_dc_usbhs.o
 .comment       0x0000000000000033       0x34 ./CherryUSB/usbd_cdc.o
 .comment       0x0000000000000033       0x34 ./CherryUSB/usbd_core.o
 .comment       0x0000000000000033       0x34 ./CherryRB/chry_ringbuffer.o
 .comment       0x0000000000000033       0x34 ./CherryDAP/dap_main.o

.debug_frame    0x0000000000000000     0x2604
 .debug_frame   0x0000000000000000       0x30 ./User/ch32v30x_it.o
 .debug_frame   0x0000000000000030       0xb4 ./User/main.o
 .debug_frame   0x00000000000000e4       0x40 ./User/system_ch32v30x.o
 .debug_frame   0x0000000000000124       0xb0 ./User/usb2uart.o
 .debug_frame   0x00000000000001d4       0xc0 ./Peripheral/src/ch32v30x_dma.o
 .debug_frame   0x0000000000000294      0x15c ./Peripheral/src/ch32v30x_gpio.o
 .debug_frame   0x00000000000003f0       0x30 ./Peripheral/src/ch32v30x_misc.o
 .debug_frame   0x0000000000000420      0x33c ./Peripheral/src/ch32v30x_rcc.o
 .debug_frame   0x000000000000075c      0x224 ./Peripheral/src/ch32v30x_usart.o
 .debug_frame   0x0000000000000980       0x70 ./Debug/debug.o
 .debug_frame   0x00000000000009f0       0xdc ./DAP/Source/DAP.o
 .debug_frame   0x0000000000000acc       0x20 ./DAP/Source/DAP_vendor.o
 .debug_frame   0x0000000000000aec       0xdc ./DAP/Source/JTAG_DP.o
 .debug_frame   0x0000000000000bc8       0x94 ./DAP/Source/SW_DP.o
 .debug_frame   0x0000000000000c5c      0x628 ./DAP/swd_host.o
 .debug_frame   0x0000000000001284      0x130 ./CherryUSB/usb_dc_usbhs.o
 .debug_frame   0x00000000000013b4       0xcc ./CherryUSB/usbd_cdc.o
 .debug_frame   0x0000000000001480      0x2cc ./CherryUSB/usbd_core.o
 .debug_frame   0x000000000000174c      0x1d8 ./CherryRB/chry_ringbuffer.o
 .debug_frame   0x0000000000001924      0x1c4 ./CherryDAP/dap_main.o
 .debug_frame   0x0000000000001ae8       0x20 d:/mounriver_studio/toolchain/risc-v embedded gcc/bin/../lib/gcc/riscv-none-embed/8.2.0/../../../../riscv-none-embed/lib/rv32imacxw/ilp32\libg_nano.a(lib_a-memcmp.o)
 .debug_frame   0x0000000000001b08       0x20 d:/mounriver_studio/toolchain/risc-v embedded gcc/bin/../lib/gcc/riscv-none-embed/8.2.0/../../../../riscv-none-embed/lib/rv32imacxw/ilp32\libg_nano.a(lib_a-memcpy.o)
 .debug_frame   0x0000000000001b28       0x54 d:/mounriver_studio/toolchain/risc-v embedded gcc/bin/../lib/gcc/riscv-none-embed/8.2.0/../../../../riscv-none-embed/lib/rv32imacxw/ilp32\libg_nano.a(lib_a-printf.o)
 .debug_frame   0x0000000000001b7c       0x54 d:/mounriver_studio/toolchain/risc-v embedded gcc/bin/../lib/gcc/riscv-none-embed/8.2.0/../../../../riscv-none-embed/lib/rv32imacxw/ilp32\libg_nano.a(lib_a-puts.o)
 .debug_frame   0x0000000000001bd0       0x48 d:/mounriver_studio/toolchain/risc-v embedded gcc/bin/../lib/gcc/riscv-none-embed/8.2.0/../../../../riscv-none-embed/lib/rv32imacxw/ilp32\libg_nano.a(lib_a-sprintf.o)
 .debug_frame   0x0000000000001c18       0x20 d:/mounriver_studio/toolchain/risc-v embedded gcc/bin/../lib/gcc/riscv-none-embed/8.2.0/../../../../riscv-none-embed/lib/rv32imacxw/ilp32\libg_nano.a(lib_a-strlen.o)
 .debug_frame   0x0000000000001c38       0x50 d:/mounriver_studio/toolchain/risc-v embedded gcc/bin/../lib/gcc/riscv-none-embed/8.2.0/../../../../riscv-none-embed/lib/rv32imacxw/ilp32\libg_nano.a(lib_a-wbuf.o)
 .debug_frame   0x0000000000001c88       0x3c d:/mounriver_studio/toolchain/risc-v embedded gcc/bin/../lib/gcc/riscv-none-embed/8.2.0/../../../../riscv-none-embed/lib/rv32imacxw/ilp32\libg_nano.a(lib_a-wsetup.o)
 .debug_frame   0x0000000000001cc4       0x7c d:/mounriver_studio/toolchain/risc-v embedded gcc/bin/../lib/gcc/riscv-none-embed/8.2.0/../../../../riscv-none-embed/lib/rv32imacxw/ilp32\libg_nano.a(lib_a-fflush.o)
 .debug_frame   0x0000000000001d40      0x148 d:/mounriver_studio/toolchain/risc-v embedded gcc/bin/../lib/gcc/riscv-none-embed/8.2.0/../../../../riscv-none-embed/lib/rv32imacxw/ilp32\libg_nano.a(lib_a-findfp.o)
 .debug_frame   0x0000000000001e88       0x88 d:/mounriver_studio/toolchain/risc-v embedded gcc/bin/../lib/gcc/riscv-none-embed/8.2.0/../../../../riscv-none-embed/lib/rv32imacxw/ilp32\libg_nano.a(lib_a-fwalk.o)
 .debug_frame   0x0000000000001f10       0x64 d:/mounriver_studio/toolchain/risc-v embedded gcc/bin/../lib/gcc/riscv-none-embed/8.2.0/../../../../riscv-none-embed/lib/rv32imacxw/ilp32\libg_nano.a(lib_a-makebuf.o)
 .debug_frame   0x0000000000001f74       0x40 d:/mounriver_studio/toolchain/risc-v embedded gcc/bin/../lib/gcc/riscv-none-embed/8.2.0/../../../../riscv-none-embed/lib/rv32imacxw/ilp32\libg_nano.a(lib_a-nano-freer.o)
 .debug_frame   0x0000000000001fb4       0x40 d:/mounriver_studio/toolchain/risc-v embedded gcc/bin/../lib/gcc/riscv-none-embed/8.2.0/../../../../riscv-none-embed/lib/rv32imacxw/ilp32\libg_nano.a(lib_a-nano-mallocr.o)
 .debug_frame   0x0000000000001ff4       0xe0 d:/mounriver_studio/toolchain/risc-v embedded gcc/bin/../lib/gcc/riscv-none-embed/8.2.0/../../../../riscv-none-embed/lib/rv32imacxw/ilp32\libg_nano.a(lib_a-nano-svfprintf.o)
 .debug_frame   0x00000000000020d4       0xd0 d:/mounriver_studio/toolchain/risc-v embedded gcc/bin/../lib/gcc/riscv-none-embed/8.2.0/../../../../riscv-none-embed/lib/rv32imacxw/ilp32\libg_nano.a(lib_a-nano-vfprintf.o)
 .debug_frame   0x00000000000021a4       0x8c d:/mounriver_studio/toolchain/risc-v embedded gcc/bin/../lib/gcc/riscv-none-embed/8.2.0/../../../../riscv-none-embed/lib/rv32imacxw/ilp32\libg_nano.a(lib_a-nano-vfprintf_i.o)
 .debug_frame   0x0000000000002230       0x30 d:/mounriver_studio/toolchain/risc-v embedded gcc/bin/../lib/gcc/riscv-none-embed/8.2.0/../../../../riscv-none-embed/lib/rv32imacxw/ilp32\libg_nano.a(lib_a-sbrkr.o)
 .debug_frame   0x0000000000002260       0xa4 d:/mounriver_studio/toolchain/risc-v embedded gcc/bin/../lib/gcc/riscv-none-embed/8.2.0/../../../../riscv-none-embed/lib/rv32imacxw/ilp32\libg_nano.a(lib_a-stdio.o)
 .debug_frame   0x0000000000002304       0x30 d:/mounriver_studio/toolchain/risc-v embedded gcc/bin/../lib/gcc/riscv-none-embed/8.2.0/../../../../riscv-none-embed/lib/rv32imacxw/ilp32\libg_nano.a(lib_a-writer.o)
 .debug_frame   0x0000000000002334       0x30 d:/mounriver_studio/toolchain/risc-v embedded gcc/bin/../lib/gcc/riscv-none-embed/8.2.0/../../../../riscv-none-embed/lib/rv32imacxw/ilp32\libg_nano.a(lib_a-closer.o)
 .debug_frame   0x0000000000002364       0x30 d:/mounriver_studio/toolchain/risc-v embedded gcc/bin/../lib/gcc/riscv-none-embed/8.2.0/../../../../riscv-none-embed/lib/rv32imacxw/ilp32\libg_nano.a(lib_a-fstatr.o)
 .debug_frame   0x0000000000002394       0x30 d:/mounriver_studio/toolchain/risc-v embedded gcc/bin/../lib/gcc/riscv-none-embed/8.2.0/../../../../riscv-none-embed/lib/rv32imacxw/ilp32\libg_nano.a(lib_a-isattyr.o)
 .debug_frame   0x00000000000023c4       0x30 d:/mounriver_studio/toolchain/risc-v embedded gcc/bin/../lib/gcc/riscv-none-embed/8.2.0/../../../../riscv-none-embed/lib/rv32imacxw/ilp32\libg_nano.a(lib_a-lseekr.o)
 .debug_frame   0x00000000000023f4       0x20 d:/mounriver_studio/toolchain/risc-v embedded gcc/bin/../lib/gcc/riscv-none-embed/8.2.0/../../../../riscv-none-embed/lib/rv32imacxw/ilp32\libg_nano.a(lib_a-memchr.o)
 .debug_frame   0x0000000000002414       0x20 d:/mounriver_studio/toolchain/risc-v embedded gcc/bin/../lib/gcc/riscv-none-embed/8.2.0/../../../../riscv-none-embed/lib/rv32imacxw/ilp32\libg_nano.a(lib_a-memmove.o)
 .debug_frame   0x0000000000002434       0x30 d:/mounriver_studio/toolchain/risc-v embedded gcc/bin/../lib/gcc/riscv-none-embed/8.2.0/../../../../riscv-none-embed/lib/rv32imacxw/ilp32\libg_nano.a(lib_a-mlock.o)
 .debug_frame   0x0000000000002464       0x40 d:/mounriver_studio/toolchain/risc-v embedded gcc/bin/../lib/gcc/riscv-none-embed/8.2.0/../../../../riscv-none-embed/lib/rv32imacxw/ilp32\libg_nano.a(lib_a-nano-reallocr.o)
 .debug_frame   0x00000000000024a4       0x30 d:/mounriver_studio/toolchain/risc-v embedded gcc/bin/../lib/gcc/riscv-none-embed/8.2.0/../../../../riscv-none-embed/lib/rv32imacxw/ilp32\libg_nano.a(lib_a-readr.o)
 .debug_frame   0x00000000000024d4       0x70 d:/mounriver_studio/toolchain/risc-v embedded gcc/bin/../lib/gcc/riscv-none-embed/8.2.0/../../../../riscv-none-embed/lib/rv32imacxw/ilp32\libg_nano.a(lib_a-reent.o)
 .debug_frame   0x0000000000002544       0x20 d:/mounriver_studio/toolchain/risc-v embedded gcc/bin/../lib/gcc/riscv-none-embed/8.2.0/../../../../riscv-none-embed/lib/rv32imacxw/ilp32\libg_nano.a(lib_a-nano-msizer.o)
 .debug_frame   0x0000000000002564       0x20 d:/mounriver_studio/toolchain/risc-v embedded gcc/bin/../lib/gcc/riscv-none-embed/8.2.0/../../../../riscv-none-embed/lib/rv32imacxw/ilp32\libnosys.a(close.o)
 .debug_frame   0x0000000000002584       0x20 d:/mounriver_studio/toolchain/risc-v embedded gcc/bin/../lib/gcc/riscv-none-embed/8.2.0/../../../../riscv-none-embed/lib/rv32imacxw/ilp32\libnosys.a(fstat.o)
 .debug_frame   0x00000000000025a4       0x20 d:/mounriver_studio/toolchain/risc-v embedded gcc/bin/../lib/gcc/riscv-none-embed/8.2.0/../../../../riscv-none-embed/lib/rv32imacxw/ilp32\libnosys.a(isatty.o)
 .debug_frame   0x00000000000025c4       0x20 d:/mounriver_studio/toolchain/risc-v embedded gcc/bin/../lib/gcc/riscv-none-embed/8.2.0/../../../../riscv-none-embed/lib/rv32imacxw/ilp32\libnosys.a(lseek.o)
 .debug_frame   0x00000000000025e4       0x20 d:/mounriver_studio/toolchain/risc-v embedded gcc/bin/../lib/gcc/riscv-none-embed/8.2.0/../../../../riscv-none-embed/lib/rv32imacxw/ilp32\libnosys.a(read.o)

.debug_loc      0x0000000000000000    0x1104d
 .debug_loc     0x0000000000000000       0x15 ./User/main.o
 .debug_loc     0x0000000000000015      0x11c ./User/system_ch32v30x.o
 .debug_loc     0x0000000000000131      0x18c ./User/usb2uart.o
 .debug_loc     0x00000000000002bd      0x217 ./Peripheral/src/ch32v30x_dma.o
 .debug_loc     0x00000000000004d4     0x147e ./Peripheral/src/ch32v30x_gpio.o
 .debug_loc     0x0000000000001952      0x140 ./Peripheral/src/ch32v30x_misc.o
 .debug_loc     0x0000000000001a92      0xd57 ./Peripheral/src/ch32v30x_rcc.o
 .debug_loc     0x00000000000027e9      0x82b ./Peripheral/src/ch32v30x_usart.o
 .debug_loc     0x0000000000003014       0x99 ./Debug/debug.o
 .debug_loc     0x00000000000030ad     0x37e4 ./DAP/Source/DAP.o
 .debug_loc     0x0000000000006891       0x51 ./DAP/Source/DAP_vendor.o
 .debug_loc     0x00000000000068e2     0x127c ./DAP/Source/JTAG_DP.o
 .debug_loc     0x0000000000007b5e     0x12e3 ./DAP/Source/SW_DP.o
 .debug_loc     0x0000000000008e41     0x4205 ./DAP/swd_host.o
 .debug_loc     0x000000000000d046      0x5d3 ./CherryUSB/usb_dc_usbhs.o
 .debug_loc     0x000000000000d619      0x155 ./CherryUSB/usbd_cdc.o
 .debug_loc     0x000000000000d76e     0x2da3 ./CherryUSB/usbd_core.o
 .debug_loc     0x0000000000010511      0x88f ./CherryRB/chry_ringbuffer.o
 .debug_loc     0x0000000000010da0      0x2ad ./CherryDAP/dap_main.o

.stab           0x0000000000000000       0x84
 .stab          0x0000000000000000       0x24 d:/mounriver_studio/toolchain/risc-v embedded gcc/bin/../lib/gcc/riscv-none-embed/8.2.0/../../../../riscv-none-embed/lib/rv32imacxw/ilp32\libnosys.a(close.o)
 .stab          0x0000000000000024       0x18 d:/mounriver_studio/toolchain/risc-v embedded gcc/bin/../lib/gcc/riscv-none-embed/8.2.0/../../../../riscv-none-embed/lib/rv32imacxw/ilp32\libnosys.a(fstat.o)
                                         0x24 (size before relaxing)
 .stab          0x000000000000003c       0x18 d:/mounriver_studio/toolchain/risc-v embedded gcc/bin/../lib/gcc/riscv-none-embed/8.2.0/../../../../riscv-none-embed/lib/rv32imacxw/ilp32\libnosys.a(isatty.o)
                                         0x24 (size before relaxing)
 .stab          0x0000000000000054       0x18 d:/mounriver_studio/toolchain/risc-v embedded gcc/bin/../lib/gcc/riscv-none-embed/8.2.0/../../../../riscv-none-embed/lib/rv32imacxw/ilp32\libnosys.a(lseek.o)
                                         0x24 (size before relaxing)
 .stab          0x000000000000006c       0x18 d:/mounriver_studio/toolchain/risc-v embedded gcc/bin/../lib/gcc/riscv-none-embed/8.2.0/../../../../riscv-none-embed/lib/rv32imacxw/ilp32\libnosys.a(read.o)
                                         0x24 (size before relaxing)

.stabstr        0x0000000000000000      0x117
 .stabstr       0x0000000000000000      0x117 d:/mounriver_studio/toolchain/risc-v embedded gcc/bin/../lib/gcc/riscv-none-embed/8.2.0/../../../../riscv-none-embed/lib/rv32imacxw/ilp32\libnosys.a(close.o)
